
kernel/kernel:     file format elf64-littleriscv


Disassembly of section .text:

0000000080000000 <_entry>:
_entry:
        # set up a stack for C.
        # stack0 is declared in start.c,
        # with a 4096-byte stack per CPU.
        # sp = stack0 + ((hartid + 1) * 4096)
        la sp, stack0
    80000000:	0000a117          	auipc	sp,0xa
    80000004:	1d813103          	ld	sp,472(sp) # 8000a1d8 <_GLOBAL_OFFSET_TABLE_+0x8>
        li a0, 1024*4
    80000008:	6505                	lui	a0,0x1
        csrr a1, mhartid
    8000000a:	f14025f3          	csrr	a1,mhartid
        addi a1, a1, 1
    8000000e:	0585                	addi	a1,a1,1
        mul a0, a0, a1
    80000010:	02b50533          	mul	a0,a0,a1
        add sp, sp, a0
    80000014:	912a                	add	sp,sp,a0
        # jump to start() in start.c
        call start
    80000016:	661040ef          	jal	80004e76 <start>

000000008000001a <spin>:
spin:
        j spin
    8000001a:	a001                	j	8000001a <spin>

000000008000001c <kfree>:
// which normally should have been returned by a
// call to kalloc().  (The exception is when
// initializing the allocator; see kinit above.)
void
kfree(void *pa)
{
    8000001c:	1101                	addi	sp,sp,-32
    8000001e:	ec06                	sd	ra,24(sp)
    80000020:	e822                	sd	s0,16(sp)
    80000022:	e426                	sd	s1,8(sp)
    80000024:	e04a                	sd	s2,0(sp)
    80000026:	1000                	addi	s0,sp,32
  struct run *r;

  if(((uint64)pa % PGSIZE) != 0 || (char*)pa < end || (uint64)pa >= PHYSTOP)
    80000028:	00023797          	auipc	a5,0x23
    8000002c:	50078793          	addi	a5,a5,1280 # 80023528 <end>
    80000030:	00f53733          	sltu	a4,a0,a5
    80000034:	47c5                	li	a5,17
    80000036:	07ee                	slli	a5,a5,0x1b
    80000038:	17fd                	addi	a5,a5,-1
    8000003a:	00a7b7b3          	sltu	a5,a5,a0
    8000003e:	8fd9                	or	a5,a5,a4
    80000040:	ef95                	bnez	a5,8000007c <kfree+0x60>
    80000042:	84aa                	mv	s1,a0
    80000044:	03451793          	slli	a5,a0,0x34
    80000048:	eb95                	bnez	a5,8000007c <kfree+0x60>
    panic("kfree");

  // Fill with junk to catch dangling refs.
  memset(pa, 1, PGSIZE);
    8000004a:	6605                	lui	a2,0x1
    8000004c:	4585                	li	a1,1
    8000004e:	110000ef          	jal	8000015e <memset>

  r = (struct run*)pa;

  acquire(&kmem.lock);
    80000052:	0000a917          	auipc	s2,0xa
    80000056:	1ce90913          	addi	s2,s2,462 # 8000a220 <kmem>
    8000005a:	854a                	mv	a0,s2
    8000005c:	09d050ef          	jal	800058f8 <acquire>
  r->next = kmem.freelist;
    80000060:	01893783          	ld	a5,24(s2)
    80000064:	e09c                	sd	a5,0(s1)
  kmem.freelist = r;
    80000066:	00993c23          	sd	s1,24(s2)
  release(&kmem.lock);
    8000006a:	854a                	mv	a0,s2
    8000006c:	121050ef          	jal	8000598c <release>
}
    80000070:	60e2                	ld	ra,24(sp)
    80000072:	6442                	ld	s0,16(sp)
    80000074:	64a2                	ld	s1,8(sp)
    80000076:	6902                	ld	s2,0(sp)
    80000078:	6105                	addi	sp,sp,32
    8000007a:	8082                	ret
    panic("kfree");
    8000007c:	00007517          	auipc	a0,0x7
    80000080:	f8450513          	addi	a0,a0,-124 # 80007000 <etext>
    80000084:	5b2050ef          	jal	80005636 <panic>

0000000080000088 <freerange>:
{
    80000088:	7179                	addi	sp,sp,-48
    8000008a:	f406                	sd	ra,40(sp)
    8000008c:	f022                	sd	s0,32(sp)
    8000008e:	ec26                	sd	s1,24(sp)
    80000090:	1800                	addi	s0,sp,48
  p = (char*)PGROUNDUP((uint64)pa_start);
    80000092:	6785                	lui	a5,0x1
    80000094:	fff78713          	addi	a4,a5,-1 # fff <_entry-0x7ffff001>
    80000098:	00e504b3          	add	s1,a0,a4
    8000009c:	777d                	lui	a4,0xfffff
    8000009e:	8cf9                	and	s1,s1,a4
  for(; p + PGSIZE <= (char*)pa_end; p += PGSIZE)
    800000a0:	94be                	add	s1,s1,a5
    800000a2:	0295e263          	bltu	a1,s1,800000c6 <freerange+0x3e>
    800000a6:	e84a                	sd	s2,16(sp)
    800000a8:	e44e                	sd	s3,8(sp)
    800000aa:	e052                	sd	s4,0(sp)
    800000ac:	892e                	mv	s2,a1
    kfree(p);
    800000ae:	8a3a                	mv	s4,a4
  for(; p + PGSIZE <= (char*)pa_end; p += PGSIZE)
    800000b0:	89be                	mv	s3,a5
    kfree(p);
    800000b2:	01448533          	add	a0,s1,s4
    800000b6:	f67ff0ef          	jal	8000001c <kfree>
  for(; p + PGSIZE <= (char*)pa_end; p += PGSIZE)
    800000ba:	94ce                	add	s1,s1,s3
    800000bc:	fe997be3          	bgeu	s2,s1,800000b2 <freerange+0x2a>
    800000c0:	6942                	ld	s2,16(sp)
    800000c2:	69a2                	ld	s3,8(sp)
    800000c4:	6a02                	ld	s4,0(sp)
}
    800000c6:	70a2                	ld	ra,40(sp)
    800000c8:	7402                	ld	s0,32(sp)
    800000ca:	64e2                	ld	s1,24(sp)
    800000cc:	6145                	addi	sp,sp,48
    800000ce:	8082                	ret

00000000800000d0 <kinit>:
{
    800000d0:	1141                	addi	sp,sp,-16
    800000d2:	e406                	sd	ra,8(sp)
    800000d4:	e022                	sd	s0,0(sp)
    800000d6:	0800                	addi	s0,sp,16
  initlock(&kmem.lock, "kmem");
    800000d8:	00007597          	auipc	a1,0x7
    800000dc:	f3858593          	addi	a1,a1,-200 # 80007010 <etext+0x10>
    800000e0:	0000a517          	auipc	a0,0xa
    800000e4:	14050513          	addi	a0,a0,320 # 8000a220 <kmem>
    800000e8:	786050ef          	jal	8000586e <initlock>
  freerange(end, (void*)PHYSTOP);
    800000ec:	45c5                	li	a1,17
    800000ee:	05ee                	slli	a1,a1,0x1b
    800000f0:	00023517          	auipc	a0,0x23
    800000f4:	43850513          	addi	a0,a0,1080 # 80023528 <end>
    800000f8:	f91ff0ef          	jal	80000088 <freerange>
}
    800000fc:	60a2                	ld	ra,8(sp)
    800000fe:	6402                	ld	s0,0(sp)
    80000100:	0141                	addi	sp,sp,16
    80000102:	8082                	ret

0000000080000104 <kalloc>:
// Allocate one 4096-byte page of physical memory.
// Returns a pointer that the kernel can use.
// Returns 0 if the memory cannot be allocated.
void *
kalloc(void)
{
    80000104:	1101                	addi	sp,sp,-32
    80000106:	ec06                	sd	ra,24(sp)
    80000108:	e822                	sd	s0,16(sp)
    8000010a:	e426                	sd	s1,8(sp)
    8000010c:	1000                	addi	s0,sp,32
  struct run *r;

  acquire(&kmem.lock);
    8000010e:	0000a517          	auipc	a0,0xa
    80000112:	11250513          	addi	a0,a0,274 # 8000a220 <kmem>
    80000116:	7e2050ef          	jal	800058f8 <acquire>
  r = kmem.freelist;
    8000011a:	0000a497          	auipc	s1,0xa
    8000011e:	11e4b483          	ld	s1,286(s1) # 8000a238 <kmem+0x18>
  if(r)
    80000122:	c49d                	beqz	s1,80000150 <kalloc+0x4c>
    kmem.freelist = r->next;
    80000124:	609c                	ld	a5,0(s1)
    80000126:	0000a717          	auipc	a4,0xa
    8000012a:	10f73923          	sd	a5,274(a4) # 8000a238 <kmem+0x18>
  release(&kmem.lock);
    8000012e:	0000a517          	auipc	a0,0xa
    80000132:	0f250513          	addi	a0,a0,242 # 8000a220 <kmem>
    80000136:	057050ef          	jal	8000598c <release>

  if(r)
    memset((char*)r, 5, PGSIZE); // fill with junk
    8000013a:	6605                	lui	a2,0x1
    8000013c:	4595                	li	a1,5
    8000013e:	8526                	mv	a0,s1
    80000140:	01e000ef          	jal	8000015e <memset>
  return (void*)r;
}
    80000144:	8526                	mv	a0,s1
    80000146:	60e2                	ld	ra,24(sp)
    80000148:	6442                	ld	s0,16(sp)
    8000014a:	64a2                	ld	s1,8(sp)
    8000014c:	6105                	addi	sp,sp,32
    8000014e:	8082                	ret
  release(&kmem.lock);
    80000150:	0000a517          	auipc	a0,0xa
    80000154:	0d050513          	addi	a0,a0,208 # 8000a220 <kmem>
    80000158:	035050ef          	jal	8000598c <release>
  if(r)
    8000015c:	b7e5                	j	80000144 <kalloc+0x40>

000000008000015e <memset>:
#include "types.h"

void*
memset(void *dst, int c, uint n)
{
    8000015e:	1141                	addi	sp,sp,-16
    80000160:	e406                	sd	ra,8(sp)
    80000162:	e022                	sd	s0,0(sp)
    80000164:	0800                	addi	s0,sp,16
  char *cdst = (char *) dst;
  int i;
  for(i = 0; i < n; i++){
    80000166:	ca19                	beqz	a2,8000017c <memset+0x1e>
    80000168:	87aa                	mv	a5,a0
    8000016a:	1602                	slli	a2,a2,0x20
    8000016c:	9201                	srli	a2,a2,0x20
    8000016e:	00a60733          	add	a4,a2,a0
    cdst[i] = c;
    80000172:	00b78023          	sb	a1,0(a5)
  for(i = 0; i < n; i++){
    80000176:	0785                	addi	a5,a5,1
    80000178:	fee79de3          	bne	a5,a4,80000172 <memset+0x14>
  }
  return dst;
}
    8000017c:	60a2                	ld	ra,8(sp)
    8000017e:	6402                	ld	s0,0(sp)
    80000180:	0141                	addi	sp,sp,16
    80000182:	8082                	ret

0000000080000184 <memcmp>:

int
memcmp(const void *v1, const void *v2, uint n)
{
    80000184:	1141                	addi	sp,sp,-16
    80000186:	e406                	sd	ra,8(sp)
    80000188:	e022                	sd	s0,0(sp)
    8000018a:	0800                	addi	s0,sp,16
  const uchar *s1, *s2;

  s1 = v1;
  s2 = v2;
  while(n-- > 0){
    8000018c:	c61d                	beqz	a2,800001ba <memcmp+0x36>
    8000018e:	1602                	slli	a2,a2,0x20
    80000190:	9201                	srli	a2,a2,0x20
    80000192:	00c506b3          	add	a3,a0,a2
    if(*s1 != *s2)
    80000196:	00054783          	lbu	a5,0(a0)
    8000019a:	0005c703          	lbu	a4,0(a1)
    8000019e:	00e79863          	bne	a5,a4,800001ae <memcmp+0x2a>
      return *s1 - *s2;
    s1++, s2++;
    800001a2:	0505                	addi	a0,a0,1
    800001a4:	0585                	addi	a1,a1,1
  while(n-- > 0){
    800001a6:	fed518e3          	bne	a0,a3,80000196 <memcmp+0x12>
  }

  return 0;
    800001aa:	4501                	li	a0,0
    800001ac:	a019                	j	800001b2 <memcmp+0x2e>
      return *s1 - *s2;
    800001ae:	40e7853b          	subw	a0,a5,a4
}
    800001b2:	60a2                	ld	ra,8(sp)
    800001b4:	6402                	ld	s0,0(sp)
    800001b6:	0141                	addi	sp,sp,16
    800001b8:	8082                	ret
  return 0;
    800001ba:	4501                	li	a0,0
    800001bc:	bfdd                	j	800001b2 <memcmp+0x2e>

00000000800001be <memmove>:

void*
memmove(void *dst, const void *src, uint n)
{
    800001be:	1141                	addi	sp,sp,-16
    800001c0:	e406                	sd	ra,8(sp)
    800001c2:	e022                	sd	s0,0(sp)
    800001c4:	0800                	addi	s0,sp,16
  const char *s;
  char *d;

  if(n == 0)
    800001c6:	c205                	beqz	a2,800001e6 <memmove+0x28>
    return dst;
  
  s = src;
  d = dst;
  if(s < d && s + n > d){
    800001c8:	02a5e363          	bltu	a1,a0,800001ee <memmove+0x30>
    s += n;
    d += n;
    while(n-- > 0)
      *--d = *--s;
  } else
    while(n-- > 0)
    800001cc:	1602                	slli	a2,a2,0x20
    800001ce:	9201                	srli	a2,a2,0x20
    800001d0:	00c587b3          	add	a5,a1,a2
{
    800001d4:	872a                	mv	a4,a0
      *d++ = *s++;
    800001d6:	0585                	addi	a1,a1,1
    800001d8:	0705                	addi	a4,a4,1
    800001da:	fff5c683          	lbu	a3,-1(a1)
    800001de:	fed70fa3          	sb	a3,-1(a4)
    while(n-- > 0)
    800001e2:	feb79ae3          	bne	a5,a1,800001d6 <memmove+0x18>

  return dst;
}
    800001e6:	60a2                	ld	ra,8(sp)
    800001e8:	6402                	ld	s0,0(sp)
    800001ea:	0141                	addi	sp,sp,16
    800001ec:	8082                	ret
  if(s < d && s + n > d){
    800001ee:	02061693          	slli	a3,a2,0x20
    800001f2:	9281                	srli	a3,a3,0x20
    800001f4:	00d58733          	add	a4,a1,a3
    800001f8:	fce57ae3          	bgeu	a0,a4,800001cc <memmove+0xe>
    d += n;
    800001fc:	96aa                	add	a3,a3,a0
    while(n-- > 0)
    800001fe:	fff6079b          	addiw	a5,a2,-1 # fff <_entry-0x7ffff001>
    80000202:	1782                	slli	a5,a5,0x20
    80000204:	9381                	srli	a5,a5,0x20
    80000206:	fff7c793          	not	a5,a5
    8000020a:	97ba                	add	a5,a5,a4
      *--d = *--s;
    8000020c:	177d                	addi	a4,a4,-1
    8000020e:	16fd                	addi	a3,a3,-1
    80000210:	00074603          	lbu	a2,0(a4)
    80000214:	00c68023          	sb	a2,0(a3)
    while(n-- > 0)
    80000218:	fee79ae3          	bne	a5,a4,8000020c <memmove+0x4e>
    8000021c:	b7e9                	j	800001e6 <memmove+0x28>

000000008000021e <memcpy>:

// memcpy exists to placate GCC.  Use memmove.
void*
memcpy(void *dst, const void *src, uint n)
{
    8000021e:	1141                	addi	sp,sp,-16
    80000220:	e406                	sd	ra,8(sp)
    80000222:	e022                	sd	s0,0(sp)
    80000224:	0800                	addi	s0,sp,16
  return memmove(dst, src, n);
    80000226:	f99ff0ef          	jal	800001be <memmove>
}
    8000022a:	60a2                	ld	ra,8(sp)
    8000022c:	6402                	ld	s0,0(sp)
    8000022e:	0141                	addi	sp,sp,16
    80000230:	8082                	ret

0000000080000232 <strncmp>:

int
strncmp(const char *p, const char *q, uint n)
{
    80000232:	1141                	addi	sp,sp,-16
    80000234:	e406                	sd	ra,8(sp)
    80000236:	e022                	sd	s0,0(sp)
    80000238:	0800                	addi	s0,sp,16
  while(n > 0 && *p && *p == *q)
    8000023a:	ce11                	beqz	a2,80000256 <strncmp+0x24>
    8000023c:	00054783          	lbu	a5,0(a0)
    80000240:	cf89                	beqz	a5,8000025a <strncmp+0x28>
    80000242:	0005c703          	lbu	a4,0(a1)
    80000246:	00f71a63          	bne	a4,a5,8000025a <strncmp+0x28>
    n--, p++, q++;
    8000024a:	367d                	addiw	a2,a2,-1
    8000024c:	0505                	addi	a0,a0,1
    8000024e:	0585                	addi	a1,a1,1
  while(n > 0 && *p && *p == *q)
    80000250:	f675                	bnez	a2,8000023c <strncmp+0xa>
  if(n == 0)
    return 0;
    80000252:	4501                	li	a0,0
    80000254:	a801                	j	80000264 <strncmp+0x32>
    80000256:	4501                	li	a0,0
    80000258:	a031                	j	80000264 <strncmp+0x32>
  return (uchar)*p - (uchar)*q;
    8000025a:	00054503          	lbu	a0,0(a0)
    8000025e:	0005c783          	lbu	a5,0(a1)
    80000262:	9d1d                	subw	a0,a0,a5
}
    80000264:	60a2                	ld	ra,8(sp)
    80000266:	6402                	ld	s0,0(sp)
    80000268:	0141                	addi	sp,sp,16
    8000026a:	8082                	ret

000000008000026c <strncpy>:

char*
strncpy(char *s, const char *t, int n)
{
    8000026c:	1141                	addi	sp,sp,-16
    8000026e:	e406                	sd	ra,8(sp)
    80000270:	e022                	sd	s0,0(sp)
    80000272:	0800                	addi	s0,sp,16
  char *os;

  os = s;
  while(n-- > 0 && (*s++ = *t++) != 0)
    80000274:	87aa                	mv	a5,a0
    80000276:	a011                	j	8000027a <strncpy+0xe>
    80000278:	8636                	mv	a2,a3
    8000027a:	02c05863          	blez	a2,800002aa <strncpy+0x3e>
    8000027e:	fff6069b          	addiw	a3,a2,-1
    80000282:	8836                	mv	a6,a3
    80000284:	0785                	addi	a5,a5,1
    80000286:	0005c703          	lbu	a4,0(a1)
    8000028a:	fee78fa3          	sb	a4,-1(a5)
    8000028e:	0585                	addi	a1,a1,1
    80000290:	f765                	bnez	a4,80000278 <strncpy+0xc>
    ;
  while(n-- > 0)
    80000292:	873e                	mv	a4,a5
    80000294:	01005b63          	blez	a6,800002aa <strncpy+0x3e>
    80000298:	9fb1                	addw	a5,a5,a2
    8000029a:	37fd                	addiw	a5,a5,-1
    *s++ = 0;
    8000029c:	0705                	addi	a4,a4,1
    8000029e:	fe070fa3          	sb	zero,-1(a4)
  while(n-- > 0)
    800002a2:	40e786bb          	subw	a3,a5,a4
    800002a6:	fed04be3          	bgtz	a3,8000029c <strncpy+0x30>
  return os;
}
    800002aa:	60a2                	ld	ra,8(sp)
    800002ac:	6402                	ld	s0,0(sp)
    800002ae:	0141                	addi	sp,sp,16
    800002b0:	8082                	ret

00000000800002b2 <safestrcpy>:

// Like strncpy but guaranteed to NUL-terminate.
char*
safestrcpy(char *s, const char *t, int n)
{
    800002b2:	1141                	addi	sp,sp,-16
    800002b4:	e406                	sd	ra,8(sp)
    800002b6:	e022                	sd	s0,0(sp)
    800002b8:	0800                	addi	s0,sp,16
  char *os;

  os = s;
  if(n <= 0)
    800002ba:	02c05363          	blez	a2,800002e0 <safestrcpy+0x2e>
    800002be:	fff6069b          	addiw	a3,a2,-1
    800002c2:	1682                	slli	a3,a3,0x20
    800002c4:	9281                	srli	a3,a3,0x20
    800002c6:	96ae                	add	a3,a3,a1
    800002c8:	87aa                	mv	a5,a0
    return os;
  while(--n > 0 && (*s++ = *t++) != 0)
    800002ca:	00d58963          	beq	a1,a3,800002dc <safestrcpy+0x2a>
    800002ce:	0585                	addi	a1,a1,1
    800002d0:	0785                	addi	a5,a5,1
    800002d2:	fff5c703          	lbu	a4,-1(a1)
    800002d6:	fee78fa3          	sb	a4,-1(a5)
    800002da:	fb65                	bnez	a4,800002ca <safestrcpy+0x18>
    ;
  *s = 0;
    800002dc:	00078023          	sb	zero,0(a5)
  return os;
}
    800002e0:	60a2                	ld	ra,8(sp)
    800002e2:	6402                	ld	s0,0(sp)
    800002e4:	0141                	addi	sp,sp,16
    800002e6:	8082                	ret

00000000800002e8 <strlen>:

int
strlen(const char *s)
{
    800002e8:	1141                	addi	sp,sp,-16
    800002ea:	e406                	sd	ra,8(sp)
    800002ec:	e022                	sd	s0,0(sp)
    800002ee:	0800                	addi	s0,sp,16
  int n;

  for(n = 0; s[n]; n++)
    800002f0:	00054783          	lbu	a5,0(a0)
    800002f4:	cf91                	beqz	a5,80000310 <strlen+0x28>
    800002f6:	00150793          	addi	a5,a0,1
    800002fa:	86be                	mv	a3,a5
    800002fc:	0785                	addi	a5,a5,1
    800002fe:	fff7c703          	lbu	a4,-1(a5)
    80000302:	ff65                	bnez	a4,800002fa <strlen+0x12>
    80000304:	40a6853b          	subw	a0,a3,a0
    ;
  return n;
}
    80000308:	60a2                	ld	ra,8(sp)
    8000030a:	6402                	ld	s0,0(sp)
    8000030c:	0141                	addi	sp,sp,16
    8000030e:	8082                	ret
  for(n = 0; s[n]; n++)
    80000310:	4501                	li	a0,0
    80000312:	bfdd                	j	80000308 <strlen+0x20>

0000000080000314 <main>:
volatile static int started = 0;

// start() jumps here in supervisor mode on all CPUs.
void
main()
{
    80000314:	1141                	addi	sp,sp,-16
    80000316:	e406                	sd	ra,8(sp)
    80000318:	e022                	sd	s0,0(sp)
    8000031a:	0800                	addi	s0,sp,16
  if(cpuid() == 0){
    8000031c:	245000ef          	jal	80000d60 <cpuid>
    virtio_disk_init(); // emulated hard disk
    userinit();      // first user process
    __sync_synchronize();
    started = 1;
  } else {
    while(started == 0)
    80000320:	0000a717          	auipc	a4,0xa
    80000324:	ed070713          	addi	a4,a4,-304 # 8000a1f0 <started>
  if(cpuid() == 0){
    80000328:	c51d                	beqz	a0,80000356 <main+0x42>
    while(started == 0)
    8000032a:	431c                	lw	a5,0(a4)
    8000032c:	2781                	sext.w	a5,a5
    8000032e:	dff5                	beqz	a5,8000032a <main+0x16>
      ;
    __sync_synchronize();
    80000330:	0330000f          	fence	rw,rw
    printf("hart %d starting\n", cpuid());
    80000334:	22d000ef          	jal	80000d60 <cpuid>
    80000338:	85aa                	mv	a1,a0
    8000033a:	00007517          	auipc	a0,0x7
    8000033e:	cfe50513          	addi	a0,a0,-770 # 80007038 <etext+0x38>
    80000342:	7cb040ef          	jal	8000530c <printf>
    kvminithart();    // turn on paging
    80000346:	080000ef          	jal	800003c6 <kvminithart>
    trapinithart();   // install kernel trap vector
    8000034a:	568010ef          	jal	800018b2 <trapinithart>
    plicinithart();   // ask PLIC for device interrupts
    8000034e:	56a040ef          	jal	800048b8 <plicinithart>
  }

  scheduler();        
    80000352:	6a7000ef          	jal	800011f8 <scheduler>
    consoleinit();
    80000356:	6dd040ef          	jal	80005232 <consoleinit>
    printfinit();
    8000035a:	318050ef          	jal	80005672 <printfinit>
    printf("\n");
    8000035e:	00007517          	auipc	a0,0x7
    80000362:	cba50513          	addi	a0,a0,-838 # 80007018 <etext+0x18>
    80000366:	7a7040ef          	jal	8000530c <printf>
    printf("xv6 kernel is booting\n");
    8000036a:	00007517          	auipc	a0,0x7
    8000036e:	cb650513          	addi	a0,a0,-842 # 80007020 <etext+0x20>
    80000372:	79b040ef          	jal	8000530c <printf>
    printf("\n");
    80000376:	00007517          	auipc	a0,0x7
    8000037a:	ca250513          	addi	a0,a0,-862 # 80007018 <etext+0x18>
    8000037e:	78f040ef          	jal	8000530c <printf>
    kinit();         // physical page allocator
    80000382:	d4fff0ef          	jal	800000d0 <kinit>
    kvminit();       // create kernel page table
    80000386:	2cc000ef          	jal	80000652 <kvminit>
    kvminithart();   // turn on paging
    8000038a:	03c000ef          	jal	800003c6 <kvminithart>
    procinit();      // process table
    8000038e:	11d000ef          	jal	80000caa <procinit>
    trapinit();      // trap vectors
    80000392:	4fc010ef          	jal	8000188e <trapinit>
    trapinithart();  // install kernel trap vector
    80000396:	51c010ef          	jal	800018b2 <trapinithart>
    plicinit();      // set up interrupt controller
    8000039a:	504040ef          	jal	8000489e <plicinit>
    plicinithart();  // ask PLIC for device interrupts
    8000039e:	51a040ef          	jal	800048b8 <plicinithart>
    binit();         // buffer cache
    800003a2:	39d010ef          	jal	80001f3e <binit>
    iinit();         // inode table
    800003a6:	0ee020ef          	jal	80002494 <iinit>
    fileinit();      // file table
    800003aa:	01a030ef          	jal	800033c4 <fileinit>
    virtio_disk_init(); // emulated hard disk
    800003ae:	5fa040ef          	jal	800049a8 <virtio_disk_init>
    userinit();      // first user process
    800003b2:	4ad000ef          	jal	8000105e <userinit>
    __sync_synchronize();
    800003b6:	0330000f          	fence	rw,rw
    started = 1;
    800003ba:	4785                	li	a5,1
    800003bc:	0000a717          	auipc	a4,0xa
    800003c0:	e2f72a23          	sw	a5,-460(a4) # 8000a1f0 <started>
    800003c4:	b779                	j	80000352 <main+0x3e>

00000000800003c6 <kvminithart>:

// Switch the current CPU's h/w page table register to
// the kernel's page table, and enable paging.
void
kvminithart()
{
    800003c6:	1141                	addi	sp,sp,-16
    800003c8:	e406                	sd	ra,8(sp)
    800003ca:	e022                	sd	s0,0(sp)
    800003cc:	0800                	addi	s0,sp,16
// flush the TLB.
static inline void
sfence_vma()
{
  // the zero, zero means flush all TLB entries.
  asm volatile("sfence.vma zero, zero");
    800003ce:	12000073          	sfence.vma
  // wait for any previous writes to the page table memory to finish.
  sfence_vma();

  w_satp(MAKE_SATP(kernel_pagetable));
    800003d2:	0000a797          	auipc	a5,0xa
    800003d6:	e267b783          	ld	a5,-474(a5) # 8000a1f8 <kernel_pagetable>
    800003da:	83b1                	srli	a5,a5,0xc
    800003dc:	577d                	li	a4,-1
    800003de:	177e                	slli	a4,a4,0x3f
    800003e0:	8fd9                	or	a5,a5,a4
  asm volatile("csrw satp, %0" : : "r" (x));
    800003e2:	18079073          	csrw	satp,a5
  asm volatile("sfence.vma zero, zero");
    800003e6:	12000073          	sfence.vma

  // flush stale entries from the TLB.
  sfence_vma();
}
    800003ea:	60a2                	ld	ra,8(sp)
    800003ec:	6402                	ld	s0,0(sp)
    800003ee:	0141                	addi	sp,sp,16
    800003f0:	8082                	ret

00000000800003f2 <walk>:
//   21..29 -- 9 bits of level-1 index.
//   12..20 -- 9 bits of level-0 index.
//    0..11 -- 12 bits of byte offset within the page.
pte_t *
walk(pagetable_t pagetable, uint64 va, int alloc)
{
    800003f2:	7139                	addi	sp,sp,-64
    800003f4:	fc06                	sd	ra,56(sp)
    800003f6:	f822                	sd	s0,48(sp)
    800003f8:	f426                	sd	s1,40(sp)
    800003fa:	f04a                	sd	s2,32(sp)
    800003fc:	ec4e                	sd	s3,24(sp)
    800003fe:	e852                	sd	s4,16(sp)
    80000400:	e456                	sd	s5,8(sp)
    80000402:	e05a                	sd	s6,0(sp)
    80000404:	0080                	addi	s0,sp,64
    80000406:	84aa                	mv	s1,a0
    80000408:	89ae                	mv	s3,a1
    8000040a:	8b32                	mv	s6,a2
  if(va >= MAXVA)
    8000040c:	57fd                	li	a5,-1
    8000040e:	83e9                	srli	a5,a5,0x1a
    80000410:	4a79                	li	s4,30
    panic("walk");

  for(int level = 2; level > 0; level--) {
    80000412:	4ab1                	li	s5,12
  if(va >= MAXVA)
    80000414:	04b7e263          	bltu	a5,a1,80000458 <walk+0x66>
    pte_t *pte = &pagetable[PX(level, va)];
    80000418:	0149d933          	srl	s2,s3,s4
    8000041c:	1ff97913          	andi	s2,s2,511
    80000420:	090e                	slli	s2,s2,0x3
    80000422:	9926                	add	s2,s2,s1
    if(*pte & PTE_V) {
    80000424:	00093483          	ld	s1,0(s2)
    80000428:	0014f793          	andi	a5,s1,1
    8000042c:	cf85                	beqz	a5,80000464 <walk+0x72>
      pagetable = (pagetable_t)PTE2PA(*pte);
    8000042e:	80a9                	srli	s1,s1,0xa
    80000430:	04b2                	slli	s1,s1,0xc
  for(int level = 2; level > 0; level--) {
    80000432:	3a5d                	addiw	s4,s4,-9
    80000434:	ff5a12e3          	bne	s4,s5,80000418 <walk+0x26>
        return 0;
      memset(pagetable, 0, PGSIZE);
      *pte = PA2PTE(pagetable) | PTE_V;
    }
  }
  return &pagetable[PX(0, va)];
    80000438:	00c9d513          	srli	a0,s3,0xc
    8000043c:	1ff57513          	andi	a0,a0,511
    80000440:	050e                	slli	a0,a0,0x3
    80000442:	9526                	add	a0,a0,s1
}
    80000444:	70e2                	ld	ra,56(sp)
    80000446:	7442                	ld	s0,48(sp)
    80000448:	74a2                	ld	s1,40(sp)
    8000044a:	7902                	ld	s2,32(sp)
    8000044c:	69e2                	ld	s3,24(sp)
    8000044e:	6a42                	ld	s4,16(sp)
    80000450:	6aa2                	ld	s5,8(sp)
    80000452:	6b02                	ld	s6,0(sp)
    80000454:	6121                	addi	sp,sp,64
    80000456:	8082                	ret
    panic("walk");
    80000458:	00007517          	auipc	a0,0x7
    8000045c:	bf850513          	addi	a0,a0,-1032 # 80007050 <etext+0x50>
    80000460:	1d6050ef          	jal	80005636 <panic>
      if(!alloc || (pagetable = (pde_t*)kalloc()) == 0)
    80000464:	020b0263          	beqz	s6,80000488 <walk+0x96>
    80000468:	c9dff0ef          	jal	80000104 <kalloc>
    8000046c:	84aa                	mv	s1,a0
    8000046e:	d979                	beqz	a0,80000444 <walk+0x52>
      memset(pagetable, 0, PGSIZE);
    80000470:	6605                	lui	a2,0x1
    80000472:	4581                	li	a1,0
    80000474:	cebff0ef          	jal	8000015e <memset>
      *pte = PA2PTE(pagetable) | PTE_V;
    80000478:	00c4d793          	srli	a5,s1,0xc
    8000047c:	07aa                	slli	a5,a5,0xa
    8000047e:	0017e793          	ori	a5,a5,1
    80000482:	00f93023          	sd	a5,0(s2)
    80000486:	b775                	j	80000432 <walk+0x40>
        return 0;
    80000488:	4501                	li	a0,0
    8000048a:	bf6d                	j	80000444 <walk+0x52>

000000008000048c <walkaddr>:
walkaddr(pagetable_t pagetable, uint64 va)
{
  pte_t *pte;
  uint64 pa;

  if(va >= MAXVA)
    8000048c:	57fd                	li	a5,-1
    8000048e:	83e9                	srli	a5,a5,0x1a
    80000490:	00b7f463          	bgeu	a5,a1,80000498 <walkaddr+0xc>
    return 0;
    80000494:	4501                	li	a0,0
    return 0;
  if((*pte & PTE_U) == 0)
    return 0;
  pa = PTE2PA(*pte);
  return pa;
}
    80000496:	8082                	ret
{
    80000498:	1141                	addi	sp,sp,-16
    8000049a:	e406                	sd	ra,8(sp)
    8000049c:	e022                	sd	s0,0(sp)
    8000049e:	0800                	addi	s0,sp,16
  pte = walk(pagetable, va, 0);
    800004a0:	4601                	li	a2,0
    800004a2:	f51ff0ef          	jal	800003f2 <walk>
  if(pte == 0)
    800004a6:	c901                	beqz	a0,800004b6 <walkaddr+0x2a>
  if((*pte & PTE_V) == 0)
    800004a8:	611c                	ld	a5,0(a0)
  if((*pte & PTE_U) == 0)
    800004aa:	0117f693          	andi	a3,a5,17
    800004ae:	4745                	li	a4,17
    return 0;
    800004b0:	4501                	li	a0,0
  if((*pte & PTE_U) == 0)
    800004b2:	00e68663          	beq	a3,a4,800004be <walkaddr+0x32>
}
    800004b6:	60a2                	ld	ra,8(sp)
    800004b8:	6402                	ld	s0,0(sp)
    800004ba:	0141                	addi	sp,sp,16
    800004bc:	8082                	ret
  pa = PTE2PA(*pte);
    800004be:	83a9                	srli	a5,a5,0xa
    800004c0:	00c79513          	slli	a0,a5,0xc
  return pa;
    800004c4:	bfcd                	j	800004b6 <walkaddr+0x2a>

00000000800004c6 <mappages>:
// va and size MUST be page-aligned.
// Returns 0 on success, -1 if walk() couldn't
// allocate a needed page-table page.
int
mappages(pagetable_t pagetable, uint64 va, uint64 size, uint64 pa, int perm)
{
    800004c6:	715d                	addi	sp,sp,-80
    800004c8:	e486                	sd	ra,72(sp)
    800004ca:	e0a2                	sd	s0,64(sp)
    800004cc:	fc26                	sd	s1,56(sp)
    800004ce:	f84a                	sd	s2,48(sp)
    800004d0:	f44e                	sd	s3,40(sp)
    800004d2:	f052                	sd	s4,32(sp)
    800004d4:	ec56                	sd	s5,24(sp)
    800004d6:	e85a                	sd	s6,16(sp)
    800004d8:	e45e                	sd	s7,8(sp)
    800004da:	0880                	addi	s0,sp,80
  uint64 a, last;
  pte_t *pte;

  if((va % PGSIZE) != 0)
    800004dc:	03459793          	slli	a5,a1,0x34
    800004e0:	eba1                	bnez	a5,80000530 <mappages+0x6a>
    800004e2:	8a2a                	mv	s4,a0
    800004e4:	8aba                	mv	s5,a4
    panic("mappages: va not aligned");

  if((size % PGSIZE) != 0)
    800004e6:	03461793          	slli	a5,a2,0x34
    800004ea:	eba9                	bnez	a5,8000053c <mappages+0x76>
    panic("mappages: size not aligned");

  if(size == 0)
    800004ec:	ce31                	beqz	a2,80000548 <mappages+0x82>
    panic("mappages: size");
  
  a = va;
  last = va + size - PGSIZE;
    800004ee:	80060613          	addi	a2,a2,-2048 # 800 <_entry-0x7ffff800>
    800004f2:	80060613          	addi	a2,a2,-2048
    800004f6:	00b60933          	add	s2,a2,a1
  a = va;
    800004fa:	84ae                	mv	s1,a1
  for(;;){
    if((pte = walk(pagetable, a, 1)) == 0)
    800004fc:	4b05                	li	s6,1
    800004fe:	40b689b3          	sub	s3,a3,a1
    if(*pte & PTE_V)
      panic("mappages: remap");
    *pte = PA2PTE(pa) | perm | PTE_V;
    if(a == last)
      break;
    a += PGSIZE;
    80000502:	6b85                	lui	s7,0x1
    if((pte = walk(pagetable, a, 1)) == 0)
    80000504:	865a                	mv	a2,s6
    80000506:	85a6                	mv	a1,s1
    80000508:	8552                	mv	a0,s4
    8000050a:	ee9ff0ef          	jal	800003f2 <walk>
    8000050e:	c929                	beqz	a0,80000560 <mappages+0x9a>
    if(*pte & PTE_V)
    80000510:	611c                	ld	a5,0(a0)
    80000512:	8b85                	andi	a5,a5,1
    80000514:	e3a1                	bnez	a5,80000554 <mappages+0x8e>
    *pte = PA2PTE(pa) | perm | PTE_V;
    80000516:	013487b3          	add	a5,s1,s3
    8000051a:	83b1                	srli	a5,a5,0xc
    8000051c:	07aa                	slli	a5,a5,0xa
    8000051e:	0157e7b3          	or	a5,a5,s5
    80000522:	0017e793          	ori	a5,a5,1
    80000526:	e11c                	sd	a5,0(a0)
    if(a == last)
    80000528:	05248863          	beq	s1,s2,80000578 <mappages+0xb2>
    a += PGSIZE;
    8000052c:	94de                	add	s1,s1,s7
    if((pte = walk(pagetable, a, 1)) == 0)
    8000052e:	bfd9                	j	80000504 <mappages+0x3e>
    panic("mappages: va not aligned");
    80000530:	00007517          	auipc	a0,0x7
    80000534:	b2850513          	addi	a0,a0,-1240 # 80007058 <etext+0x58>
    80000538:	0fe050ef          	jal	80005636 <panic>
    panic("mappages: size not aligned");
    8000053c:	00007517          	auipc	a0,0x7
    80000540:	b3c50513          	addi	a0,a0,-1220 # 80007078 <etext+0x78>
    80000544:	0f2050ef          	jal	80005636 <panic>
    panic("mappages: size");
    80000548:	00007517          	auipc	a0,0x7
    8000054c:	b5050513          	addi	a0,a0,-1200 # 80007098 <etext+0x98>
    80000550:	0e6050ef          	jal	80005636 <panic>
      panic("mappages: remap");
    80000554:	00007517          	auipc	a0,0x7
    80000558:	b5450513          	addi	a0,a0,-1196 # 800070a8 <etext+0xa8>
    8000055c:	0da050ef          	jal	80005636 <panic>
      return -1;
    80000560:	557d                	li	a0,-1
    pa += PGSIZE;
  }
  return 0;
}
    80000562:	60a6                	ld	ra,72(sp)
    80000564:	6406                	ld	s0,64(sp)
    80000566:	74e2                	ld	s1,56(sp)
    80000568:	7942                	ld	s2,48(sp)
    8000056a:	79a2                	ld	s3,40(sp)
    8000056c:	7a02                	ld	s4,32(sp)
    8000056e:	6ae2                	ld	s5,24(sp)
    80000570:	6b42                	ld	s6,16(sp)
    80000572:	6ba2                	ld	s7,8(sp)
    80000574:	6161                	addi	sp,sp,80
    80000576:	8082                	ret
  return 0;
    80000578:	4501                	li	a0,0
    8000057a:	b7e5                	j	80000562 <mappages+0x9c>

000000008000057c <kvmmap>:
{
    8000057c:	1141                	addi	sp,sp,-16
    8000057e:	e406                	sd	ra,8(sp)
    80000580:	e022                	sd	s0,0(sp)
    80000582:	0800                	addi	s0,sp,16
    80000584:	87b6                	mv	a5,a3
  if(mappages(kpgtbl, va, sz, pa, perm) != 0)
    80000586:	86b2                	mv	a3,a2
    80000588:	863e                	mv	a2,a5
    8000058a:	f3dff0ef          	jal	800004c6 <mappages>
    8000058e:	e509                	bnez	a0,80000598 <kvmmap+0x1c>
}
    80000590:	60a2                	ld	ra,8(sp)
    80000592:	6402                	ld	s0,0(sp)
    80000594:	0141                	addi	sp,sp,16
    80000596:	8082                	ret
    panic("kvmmap");
    80000598:	00007517          	auipc	a0,0x7
    8000059c:	b2050513          	addi	a0,a0,-1248 # 800070b8 <etext+0xb8>
    800005a0:	096050ef          	jal	80005636 <panic>

00000000800005a4 <kvmmake>:
{
    800005a4:	1101                	addi	sp,sp,-32
    800005a6:	ec06                	sd	ra,24(sp)
    800005a8:	e822                	sd	s0,16(sp)
    800005aa:	e426                	sd	s1,8(sp)
    800005ac:	1000                	addi	s0,sp,32
  kpgtbl = (pagetable_t) kalloc();
    800005ae:	b57ff0ef          	jal	80000104 <kalloc>
    800005b2:	84aa                	mv	s1,a0
  memset(kpgtbl, 0, PGSIZE);
    800005b4:	6605                	lui	a2,0x1
    800005b6:	4581                	li	a1,0
    800005b8:	ba7ff0ef          	jal	8000015e <memset>
  kvmmap(kpgtbl, UART0, UART0, PGSIZE, PTE_R | PTE_W);
    800005bc:	4719                	li	a4,6
    800005be:	6685                	lui	a3,0x1
    800005c0:	10000637          	lui	a2,0x10000
    800005c4:	85b2                	mv	a1,a2
    800005c6:	8526                	mv	a0,s1
    800005c8:	fb5ff0ef          	jal	8000057c <kvmmap>
  kvmmap(kpgtbl, VIRTIO0, VIRTIO0, PGSIZE, PTE_R | PTE_W);
    800005cc:	4719                	li	a4,6
    800005ce:	6685                	lui	a3,0x1
    800005d0:	10001637          	lui	a2,0x10001
    800005d4:	85b2                	mv	a1,a2
    800005d6:	8526                	mv	a0,s1
    800005d8:	fa5ff0ef          	jal	8000057c <kvmmap>
  kvmmap(kpgtbl, PLIC, PLIC, 0x4000000, PTE_R | PTE_W);
    800005dc:	4719                	li	a4,6
    800005de:	040006b7          	lui	a3,0x4000
    800005e2:	0c000637          	lui	a2,0xc000
    800005e6:	85b2                	mv	a1,a2
    800005e8:	8526                	mv	a0,s1
    800005ea:	f93ff0ef          	jal	8000057c <kvmmap>
  kvmmap(kpgtbl, KERNBASE, KERNBASE, (uint64)etext-KERNBASE, PTE_R | PTE_X);
    800005ee:	4729                	li	a4,10
    800005f0:	80007697          	auipc	a3,0x80007
    800005f4:	a1068693          	addi	a3,a3,-1520 # 7000 <_entry-0x7fff9000>
    800005f8:	4605                	li	a2,1
    800005fa:	067e                	slli	a2,a2,0x1f
    800005fc:	85b2                	mv	a1,a2
    800005fe:	8526                	mv	a0,s1
    80000600:	f7dff0ef          	jal	8000057c <kvmmap>
  kvmmap(kpgtbl, (uint64)etext, (uint64)etext, PHYSTOP-(uint64)etext, PTE_R | PTE_W);
    80000604:	4719                	li	a4,6
    80000606:	00007697          	auipc	a3,0x7
    8000060a:	9fa68693          	addi	a3,a3,-1542 # 80007000 <etext>
    8000060e:	47c5                	li	a5,17
    80000610:	07ee                	slli	a5,a5,0x1b
    80000612:	40d786b3          	sub	a3,a5,a3
    80000616:	00007617          	auipc	a2,0x7
    8000061a:	9ea60613          	addi	a2,a2,-1558 # 80007000 <etext>
    8000061e:	85b2                	mv	a1,a2
    80000620:	8526                	mv	a0,s1
    80000622:	f5bff0ef          	jal	8000057c <kvmmap>
  kvmmap(kpgtbl, TRAMPOLINE, (uint64)trampoline, PGSIZE, PTE_R | PTE_X);
    80000626:	4729                	li	a4,10
    80000628:	6685                	lui	a3,0x1
    8000062a:	00006617          	auipc	a2,0x6
    8000062e:	9d660613          	addi	a2,a2,-1578 # 80006000 <_trampoline>
    80000632:	040005b7          	lui	a1,0x4000
    80000636:	15fd                	addi	a1,a1,-1 # 3ffffff <_entry-0x7c000001>
    80000638:	05b2                	slli	a1,a1,0xc
    8000063a:	8526                	mv	a0,s1
    8000063c:	f41ff0ef          	jal	8000057c <kvmmap>
  proc_mapstacks(kpgtbl);
    80000640:	8526                	mv	a0,s1
    80000642:	5c4000ef          	jal	80000c06 <proc_mapstacks>
}
    80000646:	8526                	mv	a0,s1
    80000648:	60e2                	ld	ra,24(sp)
    8000064a:	6442                	ld	s0,16(sp)
    8000064c:	64a2                	ld	s1,8(sp)
    8000064e:	6105                	addi	sp,sp,32
    80000650:	8082                	ret

0000000080000652 <kvminit>:
{
    80000652:	1141                	addi	sp,sp,-16
    80000654:	e406                	sd	ra,8(sp)
    80000656:	e022                	sd	s0,0(sp)
    80000658:	0800                	addi	s0,sp,16
  kernel_pagetable = kvmmake();
    8000065a:	f4bff0ef          	jal	800005a4 <kvmmake>
    8000065e:	0000a797          	auipc	a5,0xa
    80000662:	b8a7bd23          	sd	a0,-1126(a5) # 8000a1f8 <kernel_pagetable>
}
    80000666:	60a2                	ld	ra,8(sp)
    80000668:	6402                	ld	s0,0(sp)
    8000066a:	0141                	addi	sp,sp,16
    8000066c:	8082                	ret

000000008000066e <uvmcreate>:

// create an empty user page table.
// returns 0 if out of memory.
pagetable_t
uvmcreate()
{
    8000066e:	1101                	addi	sp,sp,-32
    80000670:	ec06                	sd	ra,24(sp)
    80000672:	e822                	sd	s0,16(sp)
    80000674:	e426                	sd	s1,8(sp)
    80000676:	1000                	addi	s0,sp,32
  pagetable_t pagetable;
  pagetable = (pagetable_t) kalloc();
    80000678:	a8dff0ef          	jal	80000104 <kalloc>
    8000067c:	84aa                	mv	s1,a0
  if(pagetable == 0)
    8000067e:	c509                	beqz	a0,80000688 <uvmcreate+0x1a>
    return 0;
  memset(pagetable, 0, PGSIZE);
    80000680:	6605                	lui	a2,0x1
    80000682:	4581                	li	a1,0
    80000684:	adbff0ef          	jal	8000015e <memset>
  return pagetable;
}
    80000688:	8526                	mv	a0,s1
    8000068a:	60e2                	ld	ra,24(sp)
    8000068c:	6442                	ld	s0,16(sp)
    8000068e:	64a2                	ld	s1,8(sp)
    80000690:	6105                	addi	sp,sp,32
    80000692:	8082                	ret

0000000080000694 <uvmunmap>:
// Remove npages of mappings starting from va. va must be
// page-aligned. It's OK if the mappings don't exist.
// Optionally free the physical memory.
void
uvmunmap(pagetable_t pagetable, uint64 va, uint64 npages, int do_free)
{
    80000694:	7139                	addi	sp,sp,-64
    80000696:	fc06                	sd	ra,56(sp)
    80000698:	f822                	sd	s0,48(sp)
    8000069a:	0080                	addi	s0,sp,64
  uint64 a;
  pte_t *pte;

  if((va % PGSIZE) != 0)
    8000069c:	03459793          	slli	a5,a1,0x34
    800006a0:	e38d                	bnez	a5,800006c2 <uvmunmap+0x2e>
    800006a2:	f04a                	sd	s2,32(sp)
    800006a4:	ec4e                	sd	s3,24(sp)
    800006a6:	e852                	sd	s4,16(sp)
    800006a8:	e456                	sd	s5,8(sp)
    800006aa:	e05a                	sd	s6,0(sp)
    800006ac:	8a2a                	mv	s4,a0
    800006ae:	892e                	mv	s2,a1
    800006b0:	8ab6                	mv	s5,a3
    panic("uvmunmap: not aligned");

  for(a = va; a < va + npages*PGSIZE; a += PGSIZE){
    800006b2:	0632                	slli	a2,a2,0xc
    800006b4:	00b609b3          	add	s3,a2,a1
    800006b8:	6b05                	lui	s6,0x1
    800006ba:	0535f963          	bgeu	a1,s3,8000070c <uvmunmap+0x78>
    800006be:	f426                	sd	s1,40(sp)
    800006c0:	a015                	j	800006e4 <uvmunmap+0x50>
    800006c2:	f426                	sd	s1,40(sp)
    800006c4:	f04a                	sd	s2,32(sp)
    800006c6:	ec4e                	sd	s3,24(sp)
    800006c8:	e852                	sd	s4,16(sp)
    800006ca:	e456                	sd	s5,8(sp)
    800006cc:	e05a                	sd	s6,0(sp)
    panic("uvmunmap: not aligned");
    800006ce:	00007517          	auipc	a0,0x7
    800006d2:	9f250513          	addi	a0,a0,-1550 # 800070c0 <etext+0xc0>
    800006d6:	761040ef          	jal	80005636 <panic>
      continue;
    if(do_free){
      uint64 pa = PTE2PA(*pte);
      kfree((void*)pa);
    }
    *pte = 0;
    800006da:	0004b023          	sd	zero,0(s1)
  for(a = va; a < va + npages*PGSIZE; a += PGSIZE){
    800006de:	995a                	add	s2,s2,s6
    800006e0:	03397563          	bgeu	s2,s3,8000070a <uvmunmap+0x76>
    if((pte = walk(pagetable, a, 0)) == 0) // leaf page table entry allocated?
    800006e4:	4601                	li	a2,0
    800006e6:	85ca                	mv	a1,s2
    800006e8:	8552                	mv	a0,s4
    800006ea:	d09ff0ef          	jal	800003f2 <walk>
    800006ee:	84aa                	mv	s1,a0
    800006f0:	d57d                	beqz	a0,800006de <uvmunmap+0x4a>
    if((*pte & PTE_V) == 0)  // has physical page been allocated?
    800006f2:	611c                	ld	a5,0(a0)
    800006f4:	0017f713          	andi	a4,a5,1
    800006f8:	d37d                	beqz	a4,800006de <uvmunmap+0x4a>
    if(do_free){
    800006fa:	fe0a80e3          	beqz	s5,800006da <uvmunmap+0x46>
      uint64 pa = PTE2PA(*pte);
    800006fe:	83a9                	srli	a5,a5,0xa
      kfree((void*)pa);
    80000700:	00c79513          	slli	a0,a5,0xc
    80000704:	919ff0ef          	jal	8000001c <kfree>
    80000708:	bfc9                	j	800006da <uvmunmap+0x46>
    8000070a:	74a2                	ld	s1,40(sp)
    8000070c:	7902                	ld	s2,32(sp)
    8000070e:	69e2                	ld	s3,24(sp)
    80000710:	6a42                	ld	s4,16(sp)
    80000712:	6aa2                	ld	s5,8(sp)
    80000714:	6b02                	ld	s6,0(sp)
  }
}
    80000716:	70e2                	ld	ra,56(sp)
    80000718:	7442                	ld	s0,48(sp)
    8000071a:	6121                	addi	sp,sp,64
    8000071c:	8082                	ret

000000008000071e <uvmdealloc>:
// newsz.  oldsz and newsz need not be page-aligned, nor does newsz
// need to be less than oldsz.  oldsz can be larger than the actual
// process size.  Returns the new process size.
uint64
uvmdealloc(pagetable_t pagetable, uint64 oldsz, uint64 newsz)
{
    8000071e:	1101                	addi	sp,sp,-32
    80000720:	ec06                	sd	ra,24(sp)
    80000722:	e822                	sd	s0,16(sp)
    80000724:	e426                	sd	s1,8(sp)
    80000726:	1000                	addi	s0,sp,32
  if(newsz >= oldsz)
    return oldsz;
    80000728:	84ae                	mv	s1,a1
  if(newsz >= oldsz)
    8000072a:	00b67d63          	bgeu	a2,a1,80000744 <uvmdealloc+0x26>
    8000072e:	84b2                	mv	s1,a2

  if(PGROUNDUP(newsz) < PGROUNDUP(oldsz)){
    80000730:	6785                	lui	a5,0x1
    80000732:	17fd                	addi	a5,a5,-1 # fff <_entry-0x7ffff001>
    80000734:	00f60733          	add	a4,a2,a5
    80000738:	76fd                	lui	a3,0xfffff
    8000073a:	8f75                	and	a4,a4,a3
    8000073c:	97ae                	add	a5,a5,a1
    8000073e:	8ff5                	and	a5,a5,a3
    80000740:	00f76863          	bltu	a4,a5,80000750 <uvmdealloc+0x32>
    int npages = (PGROUNDUP(oldsz) - PGROUNDUP(newsz)) / PGSIZE;
    uvmunmap(pagetable, PGROUNDUP(newsz), npages, 1);
  }

  return newsz;
}
    80000744:	8526                	mv	a0,s1
    80000746:	60e2                	ld	ra,24(sp)
    80000748:	6442                	ld	s0,16(sp)
    8000074a:	64a2                	ld	s1,8(sp)
    8000074c:	6105                	addi	sp,sp,32
    8000074e:	8082                	ret
    int npages = (PGROUNDUP(oldsz) - PGROUNDUP(newsz)) / PGSIZE;
    80000750:	8f99                	sub	a5,a5,a4
    80000752:	83b1                	srli	a5,a5,0xc
    uvmunmap(pagetable, PGROUNDUP(newsz), npages, 1);
    80000754:	4685                	li	a3,1
    80000756:	0007861b          	sext.w	a2,a5
    8000075a:	85ba                	mv	a1,a4
    8000075c:	f39ff0ef          	jal	80000694 <uvmunmap>
    80000760:	b7d5                	j	80000744 <uvmdealloc+0x26>

0000000080000762 <uvmalloc>:
  if(newsz < oldsz)
    80000762:	0ab66163          	bltu	a2,a1,80000804 <uvmalloc+0xa2>
{
    80000766:	715d                	addi	sp,sp,-80
    80000768:	e486                	sd	ra,72(sp)
    8000076a:	e0a2                	sd	s0,64(sp)
    8000076c:	f84a                	sd	s2,48(sp)
    8000076e:	f052                	sd	s4,32(sp)
    80000770:	ec56                	sd	s5,24(sp)
    80000772:	e45e                	sd	s7,8(sp)
    80000774:	0880                	addi	s0,sp,80
    80000776:	8aaa                	mv	s5,a0
    80000778:	8a32                	mv	s4,a2
  oldsz = PGROUNDUP(oldsz);
    8000077a:	6785                	lui	a5,0x1
    8000077c:	17fd                	addi	a5,a5,-1 # fff <_entry-0x7ffff001>
    8000077e:	95be                	add	a1,a1,a5
    80000780:	77fd                	lui	a5,0xfffff
    80000782:	00f5f933          	and	s2,a1,a5
    80000786:	8bca                	mv	s7,s2
  for(a = oldsz; a < newsz; a += PGSIZE){
    80000788:	08c97063          	bgeu	s2,a2,80000808 <uvmalloc+0xa6>
    8000078c:	fc26                	sd	s1,56(sp)
    8000078e:	f44e                	sd	s3,40(sp)
    80000790:	e85a                	sd	s6,16(sp)
    memset(mem, 0, PGSIZE);
    80000792:	6985                	lui	s3,0x1
    if(mappages(pagetable, a, PGSIZE, (uint64)mem, PTE_R|PTE_U|xperm) != 0){
    80000794:	0126eb13          	ori	s6,a3,18
    mem = kalloc();
    80000798:	96dff0ef          	jal	80000104 <kalloc>
    8000079c:	84aa                	mv	s1,a0
    if(mem == 0){
    8000079e:	c50d                	beqz	a0,800007c8 <uvmalloc+0x66>
    memset(mem, 0, PGSIZE);
    800007a0:	864e                	mv	a2,s3
    800007a2:	4581                	li	a1,0
    800007a4:	9bbff0ef          	jal	8000015e <memset>
    if(mappages(pagetable, a, PGSIZE, (uint64)mem, PTE_R|PTE_U|xperm) != 0){
    800007a8:	875a                	mv	a4,s6
    800007aa:	86a6                	mv	a3,s1
    800007ac:	864e                	mv	a2,s3
    800007ae:	85ca                	mv	a1,s2
    800007b0:	8556                	mv	a0,s5
    800007b2:	d15ff0ef          	jal	800004c6 <mappages>
    800007b6:	e915                	bnez	a0,800007ea <uvmalloc+0x88>
  for(a = oldsz; a < newsz; a += PGSIZE){
    800007b8:	994e                	add	s2,s2,s3
    800007ba:	fd496fe3          	bltu	s2,s4,80000798 <uvmalloc+0x36>
  return newsz;
    800007be:	8552                	mv	a0,s4
    800007c0:	74e2                	ld	s1,56(sp)
    800007c2:	79a2                	ld	s3,40(sp)
    800007c4:	6b42                	ld	s6,16(sp)
    800007c6:	a811                	j	800007da <uvmalloc+0x78>
      uvmdealloc(pagetable, a, oldsz);
    800007c8:	865e                	mv	a2,s7
    800007ca:	85ca                	mv	a1,s2
    800007cc:	8556                	mv	a0,s5
    800007ce:	f51ff0ef          	jal	8000071e <uvmdealloc>
      return 0;
    800007d2:	4501                	li	a0,0
    800007d4:	74e2                	ld	s1,56(sp)
    800007d6:	79a2                	ld	s3,40(sp)
    800007d8:	6b42                	ld	s6,16(sp)
}
    800007da:	60a6                	ld	ra,72(sp)
    800007dc:	6406                	ld	s0,64(sp)
    800007de:	7942                	ld	s2,48(sp)
    800007e0:	7a02                	ld	s4,32(sp)
    800007e2:	6ae2                	ld	s5,24(sp)
    800007e4:	6ba2                	ld	s7,8(sp)
    800007e6:	6161                	addi	sp,sp,80
    800007e8:	8082                	ret
      kfree(mem);
    800007ea:	8526                	mv	a0,s1
    800007ec:	831ff0ef          	jal	8000001c <kfree>
      uvmdealloc(pagetable, a, oldsz);
    800007f0:	865e                	mv	a2,s7
    800007f2:	85ca                	mv	a1,s2
    800007f4:	8556                	mv	a0,s5
    800007f6:	f29ff0ef          	jal	8000071e <uvmdealloc>
      return 0;
    800007fa:	4501                	li	a0,0
    800007fc:	74e2                	ld	s1,56(sp)
    800007fe:	79a2                	ld	s3,40(sp)
    80000800:	6b42                	ld	s6,16(sp)
    80000802:	bfe1                	j	800007da <uvmalloc+0x78>
    return oldsz;
    80000804:	852e                	mv	a0,a1
}
    80000806:	8082                	ret
  return newsz;
    80000808:	8532                	mv	a0,a2
    8000080a:	bfc1                	j	800007da <uvmalloc+0x78>

000000008000080c <freewalk>:

// Recursively free page-table pages.
// All leaf mappings must already have been removed.
void
freewalk(pagetable_t pagetable)
{
    8000080c:	7179                	addi	sp,sp,-48
    8000080e:	f406                	sd	ra,40(sp)
    80000810:	f022                	sd	s0,32(sp)
    80000812:	ec26                	sd	s1,24(sp)
    80000814:	e84a                	sd	s2,16(sp)
    80000816:	e44e                	sd	s3,8(sp)
    80000818:	1800                	addi	s0,sp,48
    8000081a:	89aa                	mv	s3,a0
  // there are 2^9 = 512 PTEs in a page table.
  for(int i = 0; i < 512; i++){
    8000081c:	84aa                	mv	s1,a0
    8000081e:	6905                	lui	s2,0x1
    80000820:	992a                	add	s2,s2,a0
    80000822:	a811                	j	80000836 <freewalk+0x2a>
      // this PTE points to a lower-level page table.
      uint64 child = PTE2PA(pte);
      freewalk((pagetable_t)child);
      pagetable[i] = 0;
    } else if(pte & PTE_V){
      panic("freewalk: leaf");
    80000824:	00007517          	auipc	a0,0x7
    80000828:	8b450513          	addi	a0,a0,-1868 # 800070d8 <etext+0xd8>
    8000082c:	60b040ef          	jal	80005636 <panic>
  for(int i = 0; i < 512; i++){
    80000830:	04a1                	addi	s1,s1,8
    80000832:	03248163          	beq	s1,s2,80000854 <freewalk+0x48>
    pte_t pte = pagetable[i];
    80000836:	609c                	ld	a5,0(s1)
    if((pte & PTE_V) && (pte & (PTE_R|PTE_W|PTE_X)) == 0){
    80000838:	0017f713          	andi	a4,a5,1
    8000083c:	db75                	beqz	a4,80000830 <freewalk+0x24>
    8000083e:	00e7f713          	andi	a4,a5,14
    80000842:	f36d                	bnez	a4,80000824 <freewalk+0x18>
      uint64 child = PTE2PA(pte);
    80000844:	83a9                	srli	a5,a5,0xa
      freewalk((pagetable_t)child);
    80000846:	00c79513          	slli	a0,a5,0xc
    8000084a:	fc3ff0ef          	jal	8000080c <freewalk>
      pagetable[i] = 0;
    8000084e:	0004b023          	sd	zero,0(s1)
    if((pte & PTE_V) && (pte & (PTE_R|PTE_W|PTE_X)) == 0){
    80000852:	bff9                	j	80000830 <freewalk+0x24>
    }
  }
  kfree((void*)pagetable);
    80000854:	854e                	mv	a0,s3
    80000856:	fc6ff0ef          	jal	8000001c <kfree>
}
    8000085a:	70a2                	ld	ra,40(sp)
    8000085c:	7402                	ld	s0,32(sp)
    8000085e:	64e2                	ld	s1,24(sp)
    80000860:	6942                	ld	s2,16(sp)
    80000862:	69a2                	ld	s3,8(sp)
    80000864:	6145                	addi	sp,sp,48
    80000866:	8082                	ret

0000000080000868 <uvmfree>:

// Free user memory pages,
// then free page-table pages.
void
uvmfree(pagetable_t pagetable, uint64 sz)
{
    80000868:	1101                	addi	sp,sp,-32
    8000086a:	ec06                	sd	ra,24(sp)
    8000086c:	e822                	sd	s0,16(sp)
    8000086e:	e426                	sd	s1,8(sp)
    80000870:	1000                	addi	s0,sp,32
    80000872:	84aa                	mv	s1,a0
  if(sz > 0)
    80000874:	e989                	bnez	a1,80000886 <uvmfree+0x1e>
    uvmunmap(pagetable, 0, PGROUNDUP(sz)/PGSIZE, 1);
  freewalk(pagetable);
    80000876:	8526                	mv	a0,s1
    80000878:	f95ff0ef          	jal	8000080c <freewalk>
}
    8000087c:	60e2                	ld	ra,24(sp)
    8000087e:	6442                	ld	s0,16(sp)
    80000880:	64a2                	ld	s1,8(sp)
    80000882:	6105                	addi	sp,sp,32
    80000884:	8082                	ret
    uvmunmap(pagetable, 0, PGROUNDUP(sz)/PGSIZE, 1);
    80000886:	6785                	lui	a5,0x1
    80000888:	17fd                	addi	a5,a5,-1 # fff <_entry-0x7ffff001>
    8000088a:	95be                	add	a1,a1,a5
    8000088c:	4685                	li	a3,1
    8000088e:	00c5d613          	srli	a2,a1,0xc
    80000892:	4581                	li	a1,0
    80000894:	e01ff0ef          	jal	80000694 <uvmunmap>
    80000898:	bff9                	j	80000876 <uvmfree+0xe>

000000008000089a <uvmcopy>:
  pte_t *pte;
  uint64 pa, i;
  uint flags;
  char *mem;

  for(i = 0; i < sz; i += PGSIZE){
    8000089a:	ca59                	beqz	a2,80000930 <uvmcopy+0x96>
{
    8000089c:	715d                	addi	sp,sp,-80
    8000089e:	e486                	sd	ra,72(sp)
    800008a0:	e0a2                	sd	s0,64(sp)
    800008a2:	fc26                	sd	s1,56(sp)
    800008a4:	f84a                	sd	s2,48(sp)
    800008a6:	f44e                	sd	s3,40(sp)
    800008a8:	f052                	sd	s4,32(sp)
    800008aa:	ec56                	sd	s5,24(sp)
    800008ac:	e85a                	sd	s6,16(sp)
    800008ae:	e45e                	sd	s7,8(sp)
    800008b0:	0880                	addi	s0,sp,80
    800008b2:	8b2a                	mv	s6,a0
    800008b4:	8bae                	mv	s7,a1
    800008b6:	8ab2                	mv	s5,a2
  for(i = 0; i < sz; i += PGSIZE){
    800008b8:	4481                	li	s1,0
      continue;   // physical page hasn't been allocated
    pa = PTE2PA(*pte);
    flags = PTE_FLAGS(*pte);
    if((mem = kalloc()) == 0)
      goto err;
    memmove(mem, (char*)pa, PGSIZE);
    800008ba:	6a05                	lui	s4,0x1
    800008bc:	a021                	j	800008c4 <uvmcopy+0x2a>
  for(i = 0; i < sz; i += PGSIZE){
    800008be:	94d2                	add	s1,s1,s4
    800008c0:	0554fc63          	bgeu	s1,s5,80000918 <uvmcopy+0x7e>
    if((pte = walk(old, i, 0)) == 0)
    800008c4:	4601                	li	a2,0
    800008c6:	85a6                	mv	a1,s1
    800008c8:	855a                	mv	a0,s6
    800008ca:	b29ff0ef          	jal	800003f2 <walk>
    800008ce:	d965                	beqz	a0,800008be <uvmcopy+0x24>
    if((*pte & PTE_V) == 0)
    800008d0:	00053983          	ld	s3,0(a0)
    800008d4:	0019f793          	andi	a5,s3,1
    800008d8:	d3fd                	beqz	a5,800008be <uvmcopy+0x24>
    if((mem = kalloc()) == 0)
    800008da:	82bff0ef          	jal	80000104 <kalloc>
    800008de:	892a                	mv	s2,a0
    800008e0:	c11d                	beqz	a0,80000906 <uvmcopy+0x6c>
    pa = PTE2PA(*pte);
    800008e2:	00a9d593          	srli	a1,s3,0xa
    memmove(mem, (char*)pa, PGSIZE);
    800008e6:	8652                	mv	a2,s4
    800008e8:	05b2                	slli	a1,a1,0xc
    800008ea:	8d5ff0ef          	jal	800001be <memmove>
    if(mappages(new, i, PGSIZE, (uint64)mem, flags) != 0){
    800008ee:	3ff9f713          	andi	a4,s3,1023
    800008f2:	86ca                	mv	a3,s2
    800008f4:	8652                	mv	a2,s4
    800008f6:	85a6                	mv	a1,s1
    800008f8:	855e                	mv	a0,s7
    800008fa:	bcdff0ef          	jal	800004c6 <mappages>
    800008fe:	d161                	beqz	a0,800008be <uvmcopy+0x24>
      kfree(mem);
    80000900:	854a                	mv	a0,s2
    80000902:	f1aff0ef          	jal	8000001c <kfree>
    }
  }
  return 0;

 err:
  uvmunmap(new, 0, i / PGSIZE, 1);
    80000906:	4685                	li	a3,1
    80000908:	00c4d613          	srli	a2,s1,0xc
    8000090c:	4581                	li	a1,0
    8000090e:	855e                	mv	a0,s7
    80000910:	d85ff0ef          	jal	80000694 <uvmunmap>
  return -1;
    80000914:	557d                	li	a0,-1
    80000916:	a011                	j	8000091a <uvmcopy+0x80>
  return 0;
    80000918:	4501                	li	a0,0
}
    8000091a:	60a6                	ld	ra,72(sp)
    8000091c:	6406                	ld	s0,64(sp)
    8000091e:	74e2                	ld	s1,56(sp)
    80000920:	7942                	ld	s2,48(sp)
    80000922:	79a2                	ld	s3,40(sp)
    80000924:	7a02                	ld	s4,32(sp)
    80000926:	6ae2                	ld	s5,24(sp)
    80000928:	6b42                	ld	s6,16(sp)
    8000092a:	6ba2                	ld	s7,8(sp)
    8000092c:	6161                	addi	sp,sp,80
    8000092e:	8082                	ret
  return 0;
    80000930:	4501                	li	a0,0
}
    80000932:	8082                	ret

0000000080000934 <uvmclear>:

// mark a PTE invalid for user access.
// used by exec for the user stack guard page.
void
uvmclear(pagetable_t pagetable, uint64 va)
{
    80000934:	1141                	addi	sp,sp,-16
    80000936:	e406                	sd	ra,8(sp)
    80000938:	e022                	sd	s0,0(sp)
    8000093a:	0800                	addi	s0,sp,16
  pte_t *pte;
  
  pte = walk(pagetable, va, 0);
    8000093c:	4601                	li	a2,0
    8000093e:	ab5ff0ef          	jal	800003f2 <walk>
  if(pte == 0)
    80000942:	c901                	beqz	a0,80000952 <uvmclear+0x1e>
    panic("uvmclear");
  *pte &= ~PTE_U;
    80000944:	611c                	ld	a5,0(a0)
    80000946:	9bbd                	andi	a5,a5,-17
    80000948:	e11c                	sd	a5,0(a0)
}
    8000094a:	60a2                	ld	ra,8(sp)
    8000094c:	6402                	ld	s0,0(sp)
    8000094e:	0141                	addi	sp,sp,16
    80000950:	8082                	ret
    panic("uvmclear");
    80000952:	00006517          	auipc	a0,0x6
    80000956:	79650513          	addi	a0,a0,1942 # 800070e8 <etext+0xe8>
    8000095a:	4dd040ef          	jal	80005636 <panic>

000000008000095e <copyinstr>:
copyinstr(pagetable_t pagetable, char *dst, uint64 srcva, uint64 max)
{
  uint64 n, va0, pa0;
  int got_null = 0;

  while(got_null == 0 && max > 0){
    8000095e:	cac5                	beqz	a3,80000a0e <copyinstr+0xb0>
{
    80000960:	715d                	addi	sp,sp,-80
    80000962:	e486                	sd	ra,72(sp)
    80000964:	e0a2                	sd	s0,64(sp)
    80000966:	fc26                	sd	s1,56(sp)
    80000968:	f84a                	sd	s2,48(sp)
    8000096a:	f44e                	sd	s3,40(sp)
    8000096c:	f052                	sd	s4,32(sp)
    8000096e:	ec56                	sd	s5,24(sp)
    80000970:	e85a                	sd	s6,16(sp)
    80000972:	e45e                	sd	s7,8(sp)
    80000974:	0880                	addi	s0,sp,80
    80000976:	8aaa                	mv	s5,a0
    80000978:	84ae                	mv	s1,a1
    8000097a:	8bb2                	mv	s7,a2
    8000097c:	89b6                	mv	s3,a3
    va0 = PGROUNDDOWN(srcva);
    8000097e:	7b7d                	lui	s6,0xfffff
    pa0 = walkaddr(pagetable, va0);
    if(pa0 == 0)
      return -1;
    n = PGSIZE - (srcva - va0);
    80000980:	6a05                	lui	s4,0x1
    80000982:	a82d                	j	800009bc <copyinstr+0x5e>
      n = max;

    char *p = (char *) (pa0 + (srcva - va0));
    while(n > 0){
      if(*p == '\0'){
        *dst = '\0';
    80000984:	00078023          	sb	zero,0(a5)
        got_null = 1;
    80000988:	4785                	li	a5,1
      dst++;
    }

    srcva = va0 + PGSIZE;
  }
  if(got_null){
    8000098a:	0017c793          	xori	a5,a5,1
    8000098e:	40f0053b          	negw	a0,a5
    return 0;
  } else {
    return -1;
  }
}
    80000992:	60a6                	ld	ra,72(sp)
    80000994:	6406                	ld	s0,64(sp)
    80000996:	74e2                	ld	s1,56(sp)
    80000998:	7942                	ld	s2,48(sp)
    8000099a:	79a2                	ld	s3,40(sp)
    8000099c:	7a02                	ld	s4,32(sp)
    8000099e:	6ae2                	ld	s5,24(sp)
    800009a0:	6b42                	ld	s6,16(sp)
    800009a2:	6ba2                	ld	s7,8(sp)
    800009a4:	6161                	addi	sp,sp,80
    800009a6:	8082                	ret
    800009a8:	fff98713          	addi	a4,s3,-1 # fff <_entry-0x7ffff001>
    800009ac:	9726                	add	a4,a4,s1
      --max;
    800009ae:	40b709b3          	sub	s3,a4,a1
    srcva = va0 + PGSIZE;
    800009b2:	01490bb3          	add	s7,s2,s4
  while(got_null == 0 && max > 0){
    800009b6:	04e58463          	beq	a1,a4,800009fe <copyinstr+0xa0>
{
    800009ba:	84be                	mv	s1,a5
    va0 = PGROUNDDOWN(srcva);
    800009bc:	016bf933          	and	s2,s7,s6
    pa0 = walkaddr(pagetable, va0);
    800009c0:	85ca                	mv	a1,s2
    800009c2:	8556                	mv	a0,s5
    800009c4:	ac9ff0ef          	jal	8000048c <walkaddr>
    if(pa0 == 0)
    800009c8:	cd0d                	beqz	a0,80000a02 <copyinstr+0xa4>
    n = PGSIZE - (srcva - va0);
    800009ca:	417906b3          	sub	a3,s2,s7
    800009ce:	96d2                	add	a3,a3,s4
    if(n > max)
    800009d0:	00d9f363          	bgeu	s3,a3,800009d6 <copyinstr+0x78>
    800009d4:	86ce                	mv	a3,s3
    while(n > 0){
    800009d6:	ca85                	beqz	a3,80000a06 <copyinstr+0xa8>
    char *p = (char *) (pa0 + (srcva - va0));
    800009d8:	01750633          	add	a2,a0,s7
    800009dc:	41260633          	sub	a2,a2,s2
    800009e0:	87a6                	mv	a5,s1
      if(*p == '\0'){
    800009e2:	8e05                	sub	a2,a2,s1
    while(n > 0){
    800009e4:	96a6                	add	a3,a3,s1
    800009e6:	85be                	mv	a1,a5
      if(*p == '\0'){
    800009e8:	00f60733          	add	a4,a2,a5
    800009ec:	00074703          	lbu	a4,0(a4)
    800009f0:	db51                	beqz	a4,80000984 <copyinstr+0x26>
        *dst = *p;
    800009f2:	00e78023          	sb	a4,0(a5)
      dst++;
    800009f6:	0785                	addi	a5,a5,1
    while(n > 0){
    800009f8:	fed797e3          	bne	a5,a3,800009e6 <copyinstr+0x88>
    800009fc:	b775                	j	800009a8 <copyinstr+0x4a>
    800009fe:	4781                	li	a5,0
    80000a00:	b769                	j	8000098a <copyinstr+0x2c>
      return -1;
    80000a02:	557d                	li	a0,-1
    80000a04:	b779                	j	80000992 <copyinstr+0x34>
    srcva = va0 + PGSIZE;
    80000a06:	6b85                	lui	s7,0x1
    80000a08:	9bca                	add	s7,s7,s2
    80000a0a:	87a6                	mv	a5,s1
    80000a0c:	b77d                	j	800009ba <copyinstr+0x5c>
  int got_null = 0;
    80000a0e:	4781                	li	a5,0
  if(got_null){
    80000a10:	0017c793          	xori	a5,a5,1
    80000a14:	40f0053b          	negw	a0,a5
}
    80000a18:	8082                	ret

0000000080000a1a <ismapped>:
  return mem;
}

int
ismapped(pagetable_t pagetable, uint64 va)
{
    80000a1a:	1141                	addi	sp,sp,-16
    80000a1c:	e406                	sd	ra,8(sp)
    80000a1e:	e022                	sd	s0,0(sp)
    80000a20:	0800                	addi	s0,sp,16
  pte_t *pte = walk(pagetable, va, 0);
    80000a22:	4601                	li	a2,0
    80000a24:	9cfff0ef          	jal	800003f2 <walk>
  if (pte == 0) {
    80000a28:	c119                	beqz	a0,80000a2e <ismapped+0x14>
    return 0;
  }
  if (*pte & PTE_V){
    80000a2a:	6108                	ld	a0,0(a0)
    80000a2c:	8905                	andi	a0,a0,1
    return 1;
  }
  return 0;
}
    80000a2e:	60a2                	ld	ra,8(sp)
    80000a30:	6402                	ld	s0,0(sp)
    80000a32:	0141                	addi	sp,sp,16
    80000a34:	8082                	ret

0000000080000a36 <vmfault>:
{
    80000a36:	7179                	addi	sp,sp,-48
    80000a38:	f406                	sd	ra,40(sp)
    80000a3a:	f022                	sd	s0,32(sp)
    80000a3c:	e84a                	sd	s2,16(sp)
    80000a3e:	e44e                	sd	s3,8(sp)
    80000a40:	1800                	addi	s0,sp,48
    80000a42:	89aa                	mv	s3,a0
    80000a44:	892e                	mv	s2,a1
  struct proc *p = myproc();
    80000a46:	34e000ef          	jal	80000d94 <myproc>
  if (va >= p->sz)
    80000a4a:	653c                	ld	a5,72(a0)
    80000a4c:	00f96a63          	bltu	s2,a5,80000a60 <vmfault+0x2a>
    return 0;
    80000a50:	4981                	li	s3,0
}
    80000a52:	854e                	mv	a0,s3
    80000a54:	70a2                	ld	ra,40(sp)
    80000a56:	7402                	ld	s0,32(sp)
    80000a58:	6942                	ld	s2,16(sp)
    80000a5a:	69a2                	ld	s3,8(sp)
    80000a5c:	6145                	addi	sp,sp,48
    80000a5e:	8082                	ret
    80000a60:	ec26                	sd	s1,24(sp)
    80000a62:	e052                	sd	s4,0(sp)
    80000a64:	84aa                	mv	s1,a0
  va = PGROUNDDOWN(va);
    80000a66:	77fd                	lui	a5,0xfffff
    80000a68:	00f97a33          	and	s4,s2,a5
  if(ismapped(pagetable, va)) {
    80000a6c:	85d2                	mv	a1,s4
    80000a6e:	854e                	mv	a0,s3
    80000a70:	fabff0ef          	jal	80000a1a <ismapped>
    return 0;
    80000a74:	4981                	li	s3,0
  if(ismapped(pagetable, va)) {
    80000a76:	c501                	beqz	a0,80000a7e <vmfault+0x48>
    80000a78:	64e2                	ld	s1,24(sp)
    80000a7a:	6a02                	ld	s4,0(sp)
    80000a7c:	bfd9                	j	80000a52 <vmfault+0x1c>
  mem = (uint64) kalloc();
    80000a7e:	e86ff0ef          	jal	80000104 <kalloc>
    80000a82:	892a                	mv	s2,a0
  if(mem == 0)
    80000a84:	c905                	beqz	a0,80000ab4 <vmfault+0x7e>
  mem = (uint64) kalloc();
    80000a86:	89aa                	mv	s3,a0
  memset((void *) mem, 0, PGSIZE);
    80000a88:	6605                	lui	a2,0x1
    80000a8a:	4581                	li	a1,0
    80000a8c:	ed2ff0ef          	jal	8000015e <memset>
  if (mappages(p->pagetable, va, PGSIZE, mem, PTE_W|PTE_U|PTE_R) != 0) {
    80000a90:	4759                	li	a4,22
    80000a92:	86ca                	mv	a3,s2
    80000a94:	6605                	lui	a2,0x1
    80000a96:	85d2                	mv	a1,s4
    80000a98:	68a8                	ld	a0,80(s1)
    80000a9a:	a2dff0ef          	jal	800004c6 <mappages>
    80000a9e:	e501                	bnez	a0,80000aa6 <vmfault+0x70>
    80000aa0:	64e2                	ld	s1,24(sp)
    80000aa2:	6a02                	ld	s4,0(sp)
    80000aa4:	b77d                	j	80000a52 <vmfault+0x1c>
    kfree((void *)mem);
    80000aa6:	854a                	mv	a0,s2
    80000aa8:	d74ff0ef          	jal	8000001c <kfree>
    return 0;
    80000aac:	4981                	li	s3,0
    80000aae:	64e2                	ld	s1,24(sp)
    80000ab0:	6a02                	ld	s4,0(sp)
    80000ab2:	b745                	j	80000a52 <vmfault+0x1c>
    80000ab4:	64e2                	ld	s1,24(sp)
    80000ab6:	6a02                	ld	s4,0(sp)
    80000ab8:	bf69                	j	80000a52 <vmfault+0x1c>

0000000080000aba <copyout>:
  while(len > 0){
    80000aba:	cad1                	beqz	a3,80000b4e <copyout+0x94>
{
    80000abc:	711d                	addi	sp,sp,-96
    80000abe:	ec86                	sd	ra,88(sp)
    80000ac0:	e8a2                	sd	s0,80(sp)
    80000ac2:	e4a6                	sd	s1,72(sp)
    80000ac4:	e0ca                	sd	s2,64(sp)
    80000ac6:	fc4e                	sd	s3,56(sp)
    80000ac8:	f852                	sd	s4,48(sp)
    80000aca:	f456                	sd	s5,40(sp)
    80000acc:	f05a                	sd	s6,32(sp)
    80000ace:	ec5e                	sd	s7,24(sp)
    80000ad0:	e862                	sd	s8,16(sp)
    80000ad2:	e466                	sd	s9,8(sp)
    80000ad4:	e06a                	sd	s10,0(sp)
    80000ad6:	1080                	addi	s0,sp,96
    80000ad8:	8baa                	mv	s7,a0
    80000ada:	8a2e                	mv	s4,a1
    80000adc:	8b32                	mv	s6,a2
    80000ade:	8ab6                	mv	s5,a3
    va0 = PGROUNDDOWN(dstva);
    80000ae0:	7d7d                	lui	s10,0xfffff
    if(va0 >= MAXVA)
    80000ae2:	5cfd                	li	s9,-1
    80000ae4:	01acdc93          	srli	s9,s9,0x1a
    n = PGSIZE - (dstva - va0);
    80000ae8:	6c05                	lui	s8,0x1
    80000aea:	a005                	j	80000b0a <copyout+0x50>
    memmove((void *)(pa0 + (dstva - va0)), src, n);
    80000aec:	409a0533          	sub	a0,s4,s1
    80000af0:	0009061b          	sext.w	a2,s2
    80000af4:	85da                	mv	a1,s6
    80000af6:	954e                	add	a0,a0,s3
    80000af8:	ec6ff0ef          	jal	800001be <memmove>
    len -= n;
    80000afc:	412a8ab3          	sub	s5,s5,s2
    src += n;
    80000b00:	9b4a                	add	s6,s6,s2
    dstva = va0 + PGSIZE;
    80000b02:	01848a33          	add	s4,s1,s8
  while(len > 0){
    80000b06:	040a8263          	beqz	s5,80000b4a <copyout+0x90>
    va0 = PGROUNDDOWN(dstva);
    80000b0a:	01aa74b3          	and	s1,s4,s10
    if(va0 >= MAXVA)
    80000b0e:	049ce263          	bltu	s9,s1,80000b52 <copyout+0x98>
    pa0 = walkaddr(pagetable, va0);
    80000b12:	85a6                	mv	a1,s1
    80000b14:	855e                	mv	a0,s7
    80000b16:	977ff0ef          	jal	8000048c <walkaddr>
    80000b1a:	89aa                	mv	s3,a0
    if(pa0 == 0) {
    80000b1c:	e901                	bnez	a0,80000b2c <copyout+0x72>
      if((pa0 = vmfault(pagetable, va0, 0)) == 0) {
    80000b1e:	4601                	li	a2,0
    80000b20:	85a6                	mv	a1,s1
    80000b22:	855e                	mv	a0,s7
    80000b24:	f13ff0ef          	jal	80000a36 <vmfault>
    80000b28:	89aa                	mv	s3,a0
    80000b2a:	c139                	beqz	a0,80000b70 <copyout+0xb6>
    pte = walk(pagetable, va0, 0);
    80000b2c:	4601                	li	a2,0
    80000b2e:	85a6                	mv	a1,s1
    80000b30:	855e                	mv	a0,s7
    80000b32:	8c1ff0ef          	jal	800003f2 <walk>
    if((*pte & PTE_W) == 0)
    80000b36:	611c                	ld	a5,0(a0)
    80000b38:	8b91                	andi	a5,a5,4
    80000b3a:	cf8d                	beqz	a5,80000b74 <copyout+0xba>
    n = PGSIZE - (dstva - va0);
    80000b3c:	41448933          	sub	s2,s1,s4
    80000b40:	9962                	add	s2,s2,s8
    if(n > len)
    80000b42:	fb2af5e3          	bgeu	s5,s2,80000aec <copyout+0x32>
    80000b46:	8956                	mv	s2,s5
    80000b48:	b755                	j	80000aec <copyout+0x32>
  return 0;
    80000b4a:	4501                	li	a0,0
    80000b4c:	a021                	j	80000b54 <copyout+0x9a>
    80000b4e:	4501                	li	a0,0
}
    80000b50:	8082                	ret
      return -1;
    80000b52:	557d                	li	a0,-1
}
    80000b54:	60e6                	ld	ra,88(sp)
    80000b56:	6446                	ld	s0,80(sp)
    80000b58:	64a6                	ld	s1,72(sp)
    80000b5a:	6906                	ld	s2,64(sp)
    80000b5c:	79e2                	ld	s3,56(sp)
    80000b5e:	7a42                	ld	s4,48(sp)
    80000b60:	7aa2                	ld	s5,40(sp)
    80000b62:	7b02                	ld	s6,32(sp)
    80000b64:	6be2                	ld	s7,24(sp)
    80000b66:	6c42                	ld	s8,16(sp)
    80000b68:	6ca2                	ld	s9,8(sp)
    80000b6a:	6d02                	ld	s10,0(sp)
    80000b6c:	6125                	addi	sp,sp,96
    80000b6e:	8082                	ret
        return -1;
    80000b70:	557d                	li	a0,-1
    80000b72:	b7cd                	j	80000b54 <copyout+0x9a>
      return -1;
    80000b74:	557d                	li	a0,-1
    80000b76:	bff9                	j	80000b54 <copyout+0x9a>

0000000080000b78 <copyin>:
  while(len > 0){
    80000b78:	c6c9                	beqz	a3,80000c02 <copyin+0x8a>
{
    80000b7a:	715d                	addi	sp,sp,-80
    80000b7c:	e486                	sd	ra,72(sp)
    80000b7e:	e0a2                	sd	s0,64(sp)
    80000b80:	fc26                	sd	s1,56(sp)
    80000b82:	f84a                	sd	s2,48(sp)
    80000b84:	f44e                	sd	s3,40(sp)
    80000b86:	f052                	sd	s4,32(sp)
    80000b88:	ec56                	sd	s5,24(sp)
    80000b8a:	e85a                	sd	s6,16(sp)
    80000b8c:	e45e                	sd	s7,8(sp)
    80000b8e:	e062                	sd	s8,0(sp)
    80000b90:	0880                	addi	s0,sp,80
    80000b92:	8baa                	mv	s7,a0
    80000b94:	8aae                	mv	s5,a1
    80000b96:	8932                	mv	s2,a2
    80000b98:	8a36                	mv	s4,a3
    va0 = PGROUNDDOWN(srcva);
    80000b9a:	7c7d                	lui	s8,0xfffff
    n = PGSIZE - (srcva - va0);
    80000b9c:	6b05                	lui	s6,0x1
    80000b9e:	a035                	j	80000bca <copyin+0x52>
    80000ba0:	412984b3          	sub	s1,s3,s2
    80000ba4:	94da                	add	s1,s1,s6
    if(n > len)
    80000ba6:	009a7363          	bgeu	s4,s1,80000bac <copyin+0x34>
    80000baa:	84d2                	mv	s1,s4
    memmove(dst, (void *)(pa0 + (srcva - va0)), n);
    80000bac:	413905b3          	sub	a1,s2,s3
    80000bb0:	0004861b          	sext.w	a2,s1
    80000bb4:	95aa                	add	a1,a1,a0
    80000bb6:	8556                	mv	a0,s5
    80000bb8:	e06ff0ef          	jal	800001be <memmove>
    len -= n;
    80000bbc:	409a0a33          	sub	s4,s4,s1
    dst += n;
    80000bc0:	9aa6                	add	s5,s5,s1
    srcva = va0 + PGSIZE;
    80000bc2:	01698933          	add	s2,s3,s6
  while(len > 0){
    80000bc6:	020a0163          	beqz	s4,80000be8 <copyin+0x70>
    va0 = PGROUNDDOWN(srcva);
    80000bca:	018979b3          	and	s3,s2,s8
    pa0 = walkaddr(pagetable, va0);
    80000bce:	85ce                	mv	a1,s3
    80000bd0:	855e                	mv	a0,s7
    80000bd2:	8bbff0ef          	jal	8000048c <walkaddr>
    if(pa0 == 0) {
    80000bd6:	f569                	bnez	a0,80000ba0 <copyin+0x28>
      if((pa0 = vmfault(pagetable, va0, 0)) == 0) {
    80000bd8:	4601                	li	a2,0
    80000bda:	85ce                	mv	a1,s3
    80000bdc:	855e                	mv	a0,s7
    80000bde:	e59ff0ef          	jal	80000a36 <vmfault>
    80000be2:	fd5d                	bnez	a0,80000ba0 <copyin+0x28>
        return -1;
    80000be4:	557d                	li	a0,-1
    80000be6:	a011                	j	80000bea <copyin+0x72>
  return 0;
    80000be8:	4501                	li	a0,0
}
    80000bea:	60a6                	ld	ra,72(sp)
    80000bec:	6406                	ld	s0,64(sp)
    80000bee:	74e2                	ld	s1,56(sp)
    80000bf0:	7942                	ld	s2,48(sp)
    80000bf2:	79a2                	ld	s3,40(sp)
    80000bf4:	7a02                	ld	s4,32(sp)
    80000bf6:	6ae2                	ld	s5,24(sp)
    80000bf8:	6b42                	ld	s6,16(sp)
    80000bfa:	6ba2                	ld	s7,8(sp)
    80000bfc:	6c02                	ld	s8,0(sp)
    80000bfe:	6161                	addi	sp,sp,80
    80000c00:	8082                	ret
  return 0;
    80000c02:	4501                	li	a0,0
}
    80000c04:	8082                	ret

0000000080000c06 <proc_mapstacks>:
// Allocate a page for each process's kernel stack.
// Map it high in memory, followed by an invalid
// guard page.
void
proc_mapstacks(pagetable_t kpgtbl)
{
    80000c06:	715d                	addi	sp,sp,-80
    80000c08:	e486                	sd	ra,72(sp)
    80000c0a:	e0a2                	sd	s0,64(sp)
    80000c0c:	fc26                	sd	s1,56(sp)
    80000c0e:	f84a                	sd	s2,48(sp)
    80000c10:	f44e                	sd	s3,40(sp)
    80000c12:	f052                	sd	s4,32(sp)
    80000c14:	ec56                	sd	s5,24(sp)
    80000c16:	e85a                	sd	s6,16(sp)
    80000c18:	e45e                	sd	s7,8(sp)
    80000c1a:	e062                	sd	s8,0(sp)
    80000c1c:	0880                	addi	s0,sp,80
    80000c1e:	8a2a                	mv	s4,a0
  struct proc *p;
  
  for(p = proc; p < &proc[NPROC]; p++) {
    80000c20:	0000a497          	auipc	s1,0xa
    80000c24:	a5048493          	addi	s1,s1,-1456 # 8000a670 <proc>
    char *pa = kalloc();
    if(pa == 0)
      panic("kalloc");
    uint64 va = KSTACK((int) (p - proc));
    80000c28:	8c26                	mv	s8,s1
    80000c2a:	000a57b7          	lui	a5,0xa5
    80000c2e:	fa578793          	addi	a5,a5,-91 # a4fa5 <_entry-0x7ff5b05b>
    80000c32:	07b2                	slli	a5,a5,0xc
    80000c34:	fa578793          	addi	a5,a5,-91
    80000c38:	4fa50937          	lui	s2,0x4fa50
    80000c3c:	a4f90913          	addi	s2,s2,-1457 # 4fa4fa4f <_entry-0x305b05b1>
    80000c40:	1902                	slli	s2,s2,0x20
    80000c42:	993e                	add	s2,s2,a5
    80000c44:	040009b7          	lui	s3,0x4000
    80000c48:	19fd                	addi	s3,s3,-1 # 3ffffff <_entry-0x7c000001>
    80000c4a:	09b2                	slli	s3,s3,0xc
    kvmmap(kpgtbl, va, (uint64)pa, PGSIZE, PTE_R | PTE_W);
    80000c4c:	4b99                	li	s7,6
    80000c4e:	6b05                	lui	s6,0x1
  for(p = proc; p < &proc[NPROC]; p++) {
    80000c50:	0000fa97          	auipc	s5,0xf
    80000c54:	420a8a93          	addi	s5,s5,1056 # 80010070 <tickslock>
    char *pa = kalloc();
    80000c58:	cacff0ef          	jal	80000104 <kalloc>
    80000c5c:	862a                	mv	a2,a0
    if(pa == 0)
    80000c5e:	c121                	beqz	a0,80000c9e <proc_mapstacks+0x98>
    uint64 va = KSTACK((int) (p - proc));
    80000c60:	418485b3          	sub	a1,s1,s8
    80000c64:	858d                	srai	a1,a1,0x3
    80000c66:	032585b3          	mul	a1,a1,s2
    80000c6a:	05b6                	slli	a1,a1,0xd
    80000c6c:	6789                	lui	a5,0x2
    80000c6e:	9dbd                	addw	a1,a1,a5
    kvmmap(kpgtbl, va, (uint64)pa, PGSIZE, PTE_R | PTE_W);
    80000c70:	875e                	mv	a4,s7
    80000c72:	86da                	mv	a3,s6
    80000c74:	40b985b3          	sub	a1,s3,a1
    80000c78:	8552                	mv	a0,s4
    80000c7a:	903ff0ef          	jal	8000057c <kvmmap>
  for(p = proc; p < &proc[NPROC]; p++) {
    80000c7e:	16848493          	addi	s1,s1,360
    80000c82:	fd549be3          	bne	s1,s5,80000c58 <proc_mapstacks+0x52>
  }
}
    80000c86:	60a6                	ld	ra,72(sp)
    80000c88:	6406                	ld	s0,64(sp)
    80000c8a:	74e2                	ld	s1,56(sp)
    80000c8c:	7942                	ld	s2,48(sp)
    80000c8e:	79a2                	ld	s3,40(sp)
    80000c90:	7a02                	ld	s4,32(sp)
    80000c92:	6ae2                	ld	s5,24(sp)
    80000c94:	6b42                	ld	s6,16(sp)
    80000c96:	6ba2                	ld	s7,8(sp)
    80000c98:	6c02                	ld	s8,0(sp)
    80000c9a:	6161                	addi	sp,sp,80
    80000c9c:	8082                	ret
      panic("kalloc");
    80000c9e:	00006517          	auipc	a0,0x6
    80000ca2:	45a50513          	addi	a0,a0,1114 # 800070f8 <etext+0xf8>
    80000ca6:	191040ef          	jal	80005636 <panic>

0000000080000caa <procinit>:

// initialize the proc table.
void
procinit(void)
{
    80000caa:	7139                	addi	sp,sp,-64
    80000cac:	fc06                	sd	ra,56(sp)
    80000cae:	f822                	sd	s0,48(sp)
    80000cb0:	f426                	sd	s1,40(sp)
    80000cb2:	f04a                	sd	s2,32(sp)
    80000cb4:	ec4e                	sd	s3,24(sp)
    80000cb6:	e852                	sd	s4,16(sp)
    80000cb8:	e456                	sd	s5,8(sp)
    80000cba:	e05a                	sd	s6,0(sp)
    80000cbc:	0080                	addi	s0,sp,64
  struct proc *p;
  
  initlock(&pid_lock, "nextpid");
    80000cbe:	00006597          	auipc	a1,0x6
    80000cc2:	44258593          	addi	a1,a1,1090 # 80007100 <etext+0x100>
    80000cc6:	00009517          	auipc	a0,0x9
    80000cca:	57a50513          	addi	a0,a0,1402 # 8000a240 <pid_lock>
    80000cce:	3a1040ef          	jal	8000586e <initlock>
  initlock(&wait_lock, "wait_lock");
    80000cd2:	00006597          	auipc	a1,0x6
    80000cd6:	43658593          	addi	a1,a1,1078 # 80007108 <etext+0x108>
    80000cda:	00009517          	auipc	a0,0x9
    80000cde:	57e50513          	addi	a0,a0,1406 # 8000a258 <wait_lock>
    80000ce2:	38d040ef          	jal	8000586e <initlock>
  for(p = proc; p < &proc[NPROC]; p++) {
    80000ce6:	0000a497          	auipc	s1,0xa
    80000cea:	98a48493          	addi	s1,s1,-1654 # 8000a670 <proc>
      initlock(&p->lock, "proc");
    80000cee:	00006b17          	auipc	s6,0x6
    80000cf2:	42ab0b13          	addi	s6,s6,1066 # 80007118 <etext+0x118>
      p->state = UNUSED;
      p->kstack = KSTACK((int) (p - proc));
    80000cf6:	8aa6                	mv	s5,s1
    80000cf8:	000a57b7          	lui	a5,0xa5
    80000cfc:	fa578793          	addi	a5,a5,-91 # a4fa5 <_entry-0x7ff5b05b>
    80000d00:	07b2                	slli	a5,a5,0xc
    80000d02:	fa578793          	addi	a5,a5,-91
    80000d06:	4fa50937          	lui	s2,0x4fa50
    80000d0a:	a4f90913          	addi	s2,s2,-1457 # 4fa4fa4f <_entry-0x305b05b1>
    80000d0e:	1902                	slli	s2,s2,0x20
    80000d10:	993e                	add	s2,s2,a5
    80000d12:	040009b7          	lui	s3,0x4000
    80000d16:	19fd                	addi	s3,s3,-1 # 3ffffff <_entry-0x7c000001>
    80000d18:	09b2                	slli	s3,s3,0xc
  for(p = proc; p < &proc[NPROC]; p++) {
    80000d1a:	0000fa17          	auipc	s4,0xf
    80000d1e:	356a0a13          	addi	s4,s4,854 # 80010070 <tickslock>
      initlock(&p->lock, "proc");
    80000d22:	85da                	mv	a1,s6
    80000d24:	8526                	mv	a0,s1
    80000d26:	349040ef          	jal	8000586e <initlock>
      p->state = UNUSED;
    80000d2a:	0004ac23          	sw	zero,24(s1)
      p->kstack = KSTACK((int) (p - proc));
    80000d2e:	415487b3          	sub	a5,s1,s5
    80000d32:	878d                	srai	a5,a5,0x3
    80000d34:	032787b3          	mul	a5,a5,s2
    80000d38:	07b6                	slli	a5,a5,0xd
    80000d3a:	6709                	lui	a4,0x2
    80000d3c:	9fb9                	addw	a5,a5,a4
    80000d3e:	40f987b3          	sub	a5,s3,a5
    80000d42:	e0bc                	sd	a5,64(s1)
  for(p = proc; p < &proc[NPROC]; p++) {
    80000d44:	16848493          	addi	s1,s1,360
    80000d48:	fd449de3          	bne	s1,s4,80000d22 <procinit+0x78>
  }
}
    80000d4c:	70e2                	ld	ra,56(sp)
    80000d4e:	7442                	ld	s0,48(sp)
    80000d50:	74a2                	ld	s1,40(sp)
    80000d52:	7902                	ld	s2,32(sp)
    80000d54:	69e2                	ld	s3,24(sp)
    80000d56:	6a42                	ld	s4,16(sp)
    80000d58:	6aa2                	ld	s5,8(sp)
    80000d5a:	6b02                	ld	s6,0(sp)
    80000d5c:	6121                	addi	sp,sp,64
    80000d5e:	8082                	ret

0000000080000d60 <cpuid>:
// Must be called with interrupts disabled,
// to prevent race with process being moved
// to a different CPU.
int
cpuid()
{
    80000d60:	1141                	addi	sp,sp,-16
    80000d62:	e406                	sd	ra,8(sp)
    80000d64:	e022                	sd	s0,0(sp)
    80000d66:	0800                	addi	s0,sp,16
  asm volatile("mv %0, tp" : "=r" (x) );
    80000d68:	8512                	mv	a0,tp
  int id = r_tp();
  return id;
}
    80000d6a:	2501                	sext.w	a0,a0
    80000d6c:	60a2                	ld	ra,8(sp)
    80000d6e:	6402                	ld	s0,0(sp)
    80000d70:	0141                	addi	sp,sp,16
    80000d72:	8082                	ret

0000000080000d74 <mycpu>:

// Return this CPU's cpu struct.
// Interrupts must be disabled.
struct cpu*
mycpu(void)
{
    80000d74:	1141                	addi	sp,sp,-16
    80000d76:	e406                	sd	ra,8(sp)
    80000d78:	e022                	sd	s0,0(sp)
    80000d7a:	0800                	addi	s0,sp,16
    80000d7c:	8792                	mv	a5,tp
  int id = cpuid();
  struct cpu *c = &cpus[id];
    80000d7e:	2781                	sext.w	a5,a5
    80000d80:	079e                	slli	a5,a5,0x7
  return c;
}
    80000d82:	00009517          	auipc	a0,0x9
    80000d86:	4ee50513          	addi	a0,a0,1262 # 8000a270 <cpus>
    80000d8a:	953e                	add	a0,a0,a5
    80000d8c:	60a2                	ld	ra,8(sp)
    80000d8e:	6402                	ld	s0,0(sp)
    80000d90:	0141                	addi	sp,sp,16
    80000d92:	8082                	ret

0000000080000d94 <myproc>:

// Return the current struct proc *, or zero if none.
struct proc*
myproc(void)
{
    80000d94:	1101                	addi	sp,sp,-32
    80000d96:	ec06                	sd	ra,24(sp)
    80000d98:	e822                	sd	s0,16(sp)
    80000d9a:	e426                	sd	s1,8(sp)
    80000d9c:	1000                	addi	s0,sp,32
  push_off();
    80000d9e:	317040ef          	jal	800058b4 <push_off>
    80000da2:	8792                	mv	a5,tp
  struct cpu *c = mycpu();
  struct proc *p = c->proc;
    80000da4:	2781                	sext.w	a5,a5
    80000da6:	079e                	slli	a5,a5,0x7
    80000da8:	00009717          	auipc	a4,0x9
    80000dac:	49870713          	addi	a4,a4,1176 # 8000a240 <pid_lock>
    80000db0:	97ba                	add	a5,a5,a4
    80000db2:	7b9c                	ld	a5,48(a5)
    80000db4:	84be                	mv	s1,a5
  pop_off();
    80000db6:	387040ef          	jal	8000593c <pop_off>
  return p;
}
    80000dba:	8526                	mv	a0,s1
    80000dbc:	60e2                	ld	ra,24(sp)
    80000dbe:	6442                	ld	s0,16(sp)
    80000dc0:	64a2                	ld	s1,8(sp)
    80000dc2:	6105                	addi	sp,sp,32
    80000dc4:	8082                	ret

0000000080000dc6 <forkret>:

// A fork child's very first scheduling by scheduler()
// will swtch to forkret.
void
forkret(void)
{
    80000dc6:	7179                	addi	sp,sp,-48
    80000dc8:	f406                	sd	ra,40(sp)
    80000dca:	f022                	sd	s0,32(sp)
    80000dcc:	ec26                	sd	s1,24(sp)
    80000dce:	1800                	addi	s0,sp,48
  extern char userret[];
  static int first = 1;
  struct proc *p = myproc();
    80000dd0:	fc5ff0ef          	jal	80000d94 <myproc>
    80000dd4:	84aa                	mv	s1,a0

  // Still holding p->lock from scheduler.
  release(&p->lock);
    80000dd6:	3b7040ef          	jal	8000598c <release>

  if (first) {
    80000dda:	00009797          	auipc	a5,0x9
    80000dde:	3e67a783          	lw	a5,998(a5) # 8000a1c0 <first.1>
    80000de2:	cf95                	beqz	a5,80000e1e <forkret+0x58>
    // File system initialization must be run in the context of a
    // regular process (e.g., because it calls sleep), and thus cannot
    // be run from main().
    fsinit(ROOTDEV);
    80000de4:	4505                	li	a0,1
    80000de6:	36b010ef          	jal	80002950 <fsinit>

    first = 0;
    80000dea:	00009797          	auipc	a5,0x9
    80000dee:	3c07ab23          	sw	zero,982(a5) # 8000a1c0 <first.1>
    // ensure other cores see first=0.
    __sync_synchronize();
    80000df2:	0330000f          	fence	rw,rw

    // We can invoke kexec() now that file system is initialized.
    // Put the return value (argc) of kexec into a0.
    p->trapframe->a0 = kexec("/init", (char *[]){ "/init", 0 });
    80000df6:	00006797          	auipc	a5,0x6
    80000dfa:	32a78793          	addi	a5,a5,810 # 80007120 <etext+0x120>
    80000dfe:	fcf43823          	sd	a5,-48(s0)
    80000e02:	fc043c23          	sd	zero,-40(s0)
    80000e06:	fd040593          	addi	a1,s0,-48
    80000e0a:	853e                	mv	a0,a5
    80000e0c:	4c3020ef          	jal	80003ace <kexec>
    80000e10:	6cbc                	ld	a5,88(s1)
    80000e12:	fba8                	sd	a0,112(a5)
    if (p->trapframe->a0 == -1) {
    80000e14:	6cbc                	ld	a5,88(s1)
    80000e16:	7bb8                	ld	a4,112(a5)
    80000e18:	57fd                	li	a5,-1
    80000e1a:	02f70d63          	beq	a4,a5,80000e54 <forkret+0x8e>
      panic("exec");
    }
  }

  // return to user space, mimicing usertrap()'s return.
  prepare_return();
    80000e1e:	2b1000ef          	jal	800018ce <prepare_return>
  uint64 satp = MAKE_SATP(p->pagetable);
    80000e22:	68a8                	ld	a0,80(s1)
    80000e24:	8131                	srli	a0,a0,0xc
  uint64 trampoline_userret = TRAMPOLINE + (userret - trampoline);
    80000e26:	04000737          	lui	a4,0x4000
    80000e2a:	177d                	addi	a4,a4,-1 # 3ffffff <_entry-0x7c000001>
    80000e2c:	0732                	slli	a4,a4,0xc
    80000e2e:	00005797          	auipc	a5,0x5
    80000e32:	26e78793          	addi	a5,a5,622 # 8000609c <userret>
    80000e36:	00005697          	auipc	a3,0x5
    80000e3a:	1ca68693          	addi	a3,a3,458 # 80006000 <_trampoline>
    80000e3e:	8f95                	sub	a5,a5,a3
    80000e40:	97ba                	add	a5,a5,a4
  ((void (*)(uint64))trampoline_userret)(satp);
    80000e42:	577d                	li	a4,-1
    80000e44:	177e                	slli	a4,a4,0x3f
    80000e46:	8d59                	or	a0,a0,a4
    80000e48:	9782                	jalr	a5
}
    80000e4a:	70a2                	ld	ra,40(sp)
    80000e4c:	7402                	ld	s0,32(sp)
    80000e4e:	64e2                	ld	s1,24(sp)
    80000e50:	6145                	addi	sp,sp,48
    80000e52:	8082                	ret
      panic("exec");
    80000e54:	00006517          	auipc	a0,0x6
    80000e58:	2d450513          	addi	a0,a0,724 # 80007128 <etext+0x128>
    80000e5c:	7da040ef          	jal	80005636 <panic>

0000000080000e60 <allocpid>:
{
    80000e60:	1101                	addi	sp,sp,-32
    80000e62:	ec06                	sd	ra,24(sp)
    80000e64:	e822                	sd	s0,16(sp)
    80000e66:	e426                	sd	s1,8(sp)
    80000e68:	1000                	addi	s0,sp,32
  acquire(&pid_lock);
    80000e6a:	00009517          	auipc	a0,0x9
    80000e6e:	3d650513          	addi	a0,a0,982 # 8000a240 <pid_lock>
    80000e72:	287040ef          	jal	800058f8 <acquire>
  pid = nextpid;
    80000e76:	00009797          	auipc	a5,0x9
    80000e7a:	34e78793          	addi	a5,a5,846 # 8000a1c4 <nextpid>
    80000e7e:	4384                	lw	s1,0(a5)
  nextpid = nextpid + 1;
    80000e80:	0014871b          	addiw	a4,s1,1
    80000e84:	c398                	sw	a4,0(a5)
  release(&pid_lock);
    80000e86:	00009517          	auipc	a0,0x9
    80000e8a:	3ba50513          	addi	a0,a0,954 # 8000a240 <pid_lock>
    80000e8e:	2ff040ef          	jal	8000598c <release>
}
    80000e92:	8526                	mv	a0,s1
    80000e94:	60e2                	ld	ra,24(sp)
    80000e96:	6442                	ld	s0,16(sp)
    80000e98:	64a2                	ld	s1,8(sp)
    80000e9a:	6105                	addi	sp,sp,32
    80000e9c:	8082                	ret

0000000080000e9e <proc_pagetable>:
{
    80000e9e:	1101                	addi	sp,sp,-32
    80000ea0:	ec06                	sd	ra,24(sp)
    80000ea2:	e822                	sd	s0,16(sp)
    80000ea4:	e426                	sd	s1,8(sp)
    80000ea6:	e04a                	sd	s2,0(sp)
    80000ea8:	1000                	addi	s0,sp,32
    80000eaa:	892a                	mv	s2,a0
  pagetable = uvmcreate();
    80000eac:	fc2ff0ef          	jal	8000066e <uvmcreate>
    80000eb0:	84aa                	mv	s1,a0
  if(pagetable == 0)
    80000eb2:	cd05                	beqz	a0,80000eea <proc_pagetable+0x4c>
  if(mappages(pagetable, TRAMPOLINE, PGSIZE,
    80000eb4:	4729                	li	a4,10
    80000eb6:	00005697          	auipc	a3,0x5
    80000eba:	14a68693          	addi	a3,a3,330 # 80006000 <_trampoline>
    80000ebe:	6605                	lui	a2,0x1
    80000ec0:	040005b7          	lui	a1,0x4000
    80000ec4:	15fd                	addi	a1,a1,-1 # 3ffffff <_entry-0x7c000001>
    80000ec6:	05b2                	slli	a1,a1,0xc
    80000ec8:	dfeff0ef          	jal	800004c6 <mappages>
    80000ecc:	02054663          	bltz	a0,80000ef8 <proc_pagetable+0x5a>
  if(mappages(pagetable, TRAPFRAME, PGSIZE,
    80000ed0:	4719                	li	a4,6
    80000ed2:	05893683          	ld	a3,88(s2)
    80000ed6:	6605                	lui	a2,0x1
    80000ed8:	020005b7          	lui	a1,0x2000
    80000edc:	15fd                	addi	a1,a1,-1 # 1ffffff <_entry-0x7e000001>
    80000ede:	05b6                	slli	a1,a1,0xd
    80000ee0:	8526                	mv	a0,s1
    80000ee2:	de4ff0ef          	jal	800004c6 <mappages>
    80000ee6:	00054f63          	bltz	a0,80000f04 <proc_pagetable+0x66>
}
    80000eea:	8526                	mv	a0,s1
    80000eec:	60e2                	ld	ra,24(sp)
    80000eee:	6442                	ld	s0,16(sp)
    80000ef0:	64a2                	ld	s1,8(sp)
    80000ef2:	6902                	ld	s2,0(sp)
    80000ef4:	6105                	addi	sp,sp,32
    80000ef6:	8082                	ret
    uvmfree(pagetable, 0);
    80000ef8:	4581                	li	a1,0
    80000efa:	8526                	mv	a0,s1
    80000efc:	96dff0ef          	jal	80000868 <uvmfree>
    return 0;
    80000f00:	4481                	li	s1,0
    80000f02:	b7e5                	j	80000eea <proc_pagetable+0x4c>
    uvmunmap(pagetable, TRAMPOLINE, 1, 0);
    80000f04:	4681                	li	a3,0
    80000f06:	4605                	li	a2,1
    80000f08:	040005b7          	lui	a1,0x4000
    80000f0c:	15fd                	addi	a1,a1,-1 # 3ffffff <_entry-0x7c000001>
    80000f0e:	05b2                	slli	a1,a1,0xc
    80000f10:	8526                	mv	a0,s1
    80000f12:	f82ff0ef          	jal	80000694 <uvmunmap>
    uvmfree(pagetable, 0);
    80000f16:	4581                	li	a1,0
    80000f18:	8526                	mv	a0,s1
    80000f1a:	94fff0ef          	jal	80000868 <uvmfree>
    return 0;
    80000f1e:	4481                	li	s1,0
    80000f20:	b7e9                	j	80000eea <proc_pagetable+0x4c>

0000000080000f22 <proc_freepagetable>:
{
    80000f22:	1101                	addi	sp,sp,-32
    80000f24:	ec06                	sd	ra,24(sp)
    80000f26:	e822                	sd	s0,16(sp)
    80000f28:	e426                	sd	s1,8(sp)
    80000f2a:	e04a                	sd	s2,0(sp)
    80000f2c:	1000                	addi	s0,sp,32
    80000f2e:	84aa                	mv	s1,a0
    80000f30:	892e                	mv	s2,a1
  uvmunmap(pagetable, TRAMPOLINE, 1, 0);
    80000f32:	4681                	li	a3,0
    80000f34:	4605                	li	a2,1
    80000f36:	040005b7          	lui	a1,0x4000
    80000f3a:	15fd                	addi	a1,a1,-1 # 3ffffff <_entry-0x7c000001>
    80000f3c:	05b2                	slli	a1,a1,0xc
    80000f3e:	f56ff0ef          	jal	80000694 <uvmunmap>
  uvmunmap(pagetable, TRAPFRAME, 1, 0);
    80000f42:	4681                	li	a3,0
    80000f44:	4605                	li	a2,1
    80000f46:	020005b7          	lui	a1,0x2000
    80000f4a:	15fd                	addi	a1,a1,-1 # 1ffffff <_entry-0x7e000001>
    80000f4c:	05b6                	slli	a1,a1,0xd
    80000f4e:	8526                	mv	a0,s1
    80000f50:	f44ff0ef          	jal	80000694 <uvmunmap>
  uvmfree(pagetable, sz);
    80000f54:	85ca                	mv	a1,s2
    80000f56:	8526                	mv	a0,s1
    80000f58:	911ff0ef          	jal	80000868 <uvmfree>
}
    80000f5c:	60e2                	ld	ra,24(sp)
    80000f5e:	6442                	ld	s0,16(sp)
    80000f60:	64a2                	ld	s1,8(sp)
    80000f62:	6902                	ld	s2,0(sp)
    80000f64:	6105                	addi	sp,sp,32
    80000f66:	8082                	ret

0000000080000f68 <freeproc>:
{
    80000f68:	1101                	addi	sp,sp,-32
    80000f6a:	ec06                	sd	ra,24(sp)
    80000f6c:	e822                	sd	s0,16(sp)
    80000f6e:	e426                	sd	s1,8(sp)
    80000f70:	1000                	addi	s0,sp,32
    80000f72:	84aa                	mv	s1,a0
  if(p->trapframe)
    80000f74:	6d28                	ld	a0,88(a0)
    80000f76:	c119                	beqz	a0,80000f7c <freeproc+0x14>
    kfree((void*)p->trapframe);
    80000f78:	8a4ff0ef          	jal	8000001c <kfree>
  p->trapframe = 0;
    80000f7c:	0404bc23          	sd	zero,88(s1)
  if(p->pagetable)
    80000f80:	68a8                	ld	a0,80(s1)
    80000f82:	c501                	beqz	a0,80000f8a <freeproc+0x22>
    proc_freepagetable(p->pagetable, p->sz);
    80000f84:	64ac                	ld	a1,72(s1)
    80000f86:	f9dff0ef          	jal	80000f22 <proc_freepagetable>
  p->pagetable = 0;
    80000f8a:	0404b823          	sd	zero,80(s1)
  p->sz = 0;
    80000f8e:	0404b423          	sd	zero,72(s1)
  p->pid = 0;
    80000f92:	0204a823          	sw	zero,48(s1)
  p->parent = 0;
    80000f96:	0204bc23          	sd	zero,56(s1)
  p->name[0] = 0;
    80000f9a:	14048c23          	sb	zero,344(s1)
  p->chan = 0;
    80000f9e:	0204b023          	sd	zero,32(s1)
  p->killed = 0;
    80000fa2:	0204a423          	sw	zero,40(s1)
  p->xstate = 0;
    80000fa6:	0204a623          	sw	zero,44(s1)
  p->state = UNUSED;
    80000faa:	0004ac23          	sw	zero,24(s1)
}
    80000fae:	60e2                	ld	ra,24(sp)
    80000fb0:	6442                	ld	s0,16(sp)
    80000fb2:	64a2                	ld	s1,8(sp)
    80000fb4:	6105                	addi	sp,sp,32
    80000fb6:	8082                	ret

0000000080000fb8 <allocproc>:
{
    80000fb8:	1101                	addi	sp,sp,-32
    80000fba:	ec06                	sd	ra,24(sp)
    80000fbc:	e822                	sd	s0,16(sp)
    80000fbe:	e426                	sd	s1,8(sp)
    80000fc0:	e04a                	sd	s2,0(sp)
    80000fc2:	1000                	addi	s0,sp,32
  for(p = proc; p < &proc[NPROC]; p++) {
    80000fc4:	00009497          	auipc	s1,0x9
    80000fc8:	6ac48493          	addi	s1,s1,1708 # 8000a670 <proc>
    80000fcc:	0000f917          	auipc	s2,0xf
    80000fd0:	0a490913          	addi	s2,s2,164 # 80010070 <tickslock>
    acquire(&p->lock);
    80000fd4:	8526                	mv	a0,s1
    80000fd6:	123040ef          	jal	800058f8 <acquire>
    if(p->state == UNUSED) {
    80000fda:	4c9c                	lw	a5,24(s1)
    80000fdc:	cb91                	beqz	a5,80000ff0 <allocproc+0x38>
      release(&p->lock);
    80000fde:	8526                	mv	a0,s1
    80000fe0:	1ad040ef          	jal	8000598c <release>
  for(p = proc; p < &proc[NPROC]; p++) {
    80000fe4:	16848493          	addi	s1,s1,360
    80000fe8:	ff2496e3          	bne	s1,s2,80000fd4 <allocproc+0x1c>
  return 0;
    80000fec:	4481                	li	s1,0
    80000fee:	a089                	j	80001030 <allocproc+0x78>
  p->pid = allocpid();
    80000ff0:	e71ff0ef          	jal	80000e60 <allocpid>
    80000ff4:	d888                	sw	a0,48(s1)
  p->state = USED;
    80000ff6:	4785                	li	a5,1
    80000ff8:	cc9c                	sw	a5,24(s1)
  if((p->trapframe = (struct trapframe *)kalloc()) == 0){
    80000ffa:	90aff0ef          	jal	80000104 <kalloc>
    80000ffe:	892a                	mv	s2,a0
    80001000:	eca8                	sd	a0,88(s1)
    80001002:	cd15                	beqz	a0,8000103e <allocproc+0x86>
  p->pagetable = proc_pagetable(p);
    80001004:	8526                	mv	a0,s1
    80001006:	e99ff0ef          	jal	80000e9e <proc_pagetable>
    8000100a:	892a                	mv	s2,a0
    8000100c:	e8a8                	sd	a0,80(s1)
  if(p->pagetable == 0){
    8000100e:	c121                	beqz	a0,8000104e <allocproc+0x96>
  memset(&p->context, 0, sizeof(p->context));
    80001010:	07000613          	li	a2,112
    80001014:	4581                	li	a1,0
    80001016:	06048513          	addi	a0,s1,96
    8000101a:	944ff0ef          	jal	8000015e <memset>
  p->context.ra = (uint64)forkret;
    8000101e:	00000797          	auipc	a5,0x0
    80001022:	da878793          	addi	a5,a5,-600 # 80000dc6 <forkret>
    80001026:	f0bc                	sd	a5,96(s1)
  p->context.sp = p->kstack + PGSIZE;
    80001028:	60bc                	ld	a5,64(s1)
    8000102a:	6705                	lui	a4,0x1
    8000102c:	97ba                	add	a5,a5,a4
    8000102e:	f4bc                	sd	a5,104(s1)
}
    80001030:	8526                	mv	a0,s1
    80001032:	60e2                	ld	ra,24(sp)
    80001034:	6442                	ld	s0,16(sp)
    80001036:	64a2                	ld	s1,8(sp)
    80001038:	6902                	ld	s2,0(sp)
    8000103a:	6105                	addi	sp,sp,32
    8000103c:	8082                	ret
    freeproc(p);
    8000103e:	8526                	mv	a0,s1
    80001040:	f29ff0ef          	jal	80000f68 <freeproc>
    release(&p->lock);
    80001044:	8526                	mv	a0,s1
    80001046:	147040ef          	jal	8000598c <release>
    return 0;
    8000104a:	84ca                	mv	s1,s2
    8000104c:	b7d5                	j	80001030 <allocproc+0x78>
    freeproc(p);
    8000104e:	8526                	mv	a0,s1
    80001050:	f19ff0ef          	jal	80000f68 <freeproc>
    release(&p->lock);
    80001054:	8526                	mv	a0,s1
    80001056:	137040ef          	jal	8000598c <release>
    return 0;
    8000105a:	84ca                	mv	s1,s2
    8000105c:	bfd1                	j	80001030 <allocproc+0x78>

000000008000105e <userinit>:
{
    8000105e:	1101                	addi	sp,sp,-32
    80001060:	ec06                	sd	ra,24(sp)
    80001062:	e822                	sd	s0,16(sp)
    80001064:	e426                	sd	s1,8(sp)
    80001066:	1000                	addi	s0,sp,32
  p = allocproc();
    80001068:	f51ff0ef          	jal	80000fb8 <allocproc>
    8000106c:	84aa                	mv	s1,a0
  initproc = p;
    8000106e:	00009797          	auipc	a5,0x9
    80001072:	18a7b923          	sd	a0,402(a5) # 8000a200 <initproc>
  p->cwd = namei("/");
    80001076:	00006517          	auipc	a0,0x6
    8000107a:	0ba50513          	addi	a0,a0,186 # 80007130 <etext+0x130>
    8000107e:	60d010ef          	jal	80002e8a <namei>
    80001082:	14a4b823          	sd	a0,336(s1)
  p->state = RUNNABLE;
    80001086:	478d                	li	a5,3
    80001088:	cc9c                	sw	a5,24(s1)
  release(&p->lock);
    8000108a:	8526                	mv	a0,s1
    8000108c:	101040ef          	jal	8000598c <release>
}
    80001090:	60e2                	ld	ra,24(sp)
    80001092:	6442                	ld	s0,16(sp)
    80001094:	64a2                	ld	s1,8(sp)
    80001096:	6105                	addi	sp,sp,32
    80001098:	8082                	ret

000000008000109a <growproc>:
{
    8000109a:	1101                	addi	sp,sp,-32
    8000109c:	ec06                	sd	ra,24(sp)
    8000109e:	e822                	sd	s0,16(sp)
    800010a0:	e426                	sd	s1,8(sp)
    800010a2:	e04a                	sd	s2,0(sp)
    800010a4:	1000                	addi	s0,sp,32
    800010a6:	892a                	mv	s2,a0
  struct proc *p = myproc();
    800010a8:	cedff0ef          	jal	80000d94 <myproc>
    800010ac:	84aa                	mv	s1,a0
  sz = p->sz;
    800010ae:	652c                	ld	a1,72(a0)
  if(n > 0){
    800010b0:	01204c63          	bgtz	s2,800010c8 <growproc+0x2e>
  } else if(n < 0){
    800010b4:	02094463          	bltz	s2,800010dc <growproc+0x42>
  p->sz = sz;
    800010b8:	e4ac                	sd	a1,72(s1)
  return 0;
    800010ba:	4501                	li	a0,0
}
    800010bc:	60e2                	ld	ra,24(sp)
    800010be:	6442                	ld	s0,16(sp)
    800010c0:	64a2                	ld	s1,8(sp)
    800010c2:	6902                	ld	s2,0(sp)
    800010c4:	6105                	addi	sp,sp,32
    800010c6:	8082                	ret
    if((sz = uvmalloc(p->pagetable, sz, sz + n, PTE_W)) == 0) {
    800010c8:	4691                	li	a3,4
    800010ca:	00b90633          	add	a2,s2,a1
    800010ce:	6928                	ld	a0,80(a0)
    800010d0:	e92ff0ef          	jal	80000762 <uvmalloc>
    800010d4:	85aa                	mv	a1,a0
    800010d6:	f16d                	bnez	a0,800010b8 <growproc+0x1e>
      return -1;
    800010d8:	557d                	li	a0,-1
    800010da:	b7cd                	j	800010bc <growproc+0x22>
    sz = uvmdealloc(p->pagetable, sz, sz + n);
    800010dc:	00b90633          	add	a2,s2,a1
    800010e0:	6928                	ld	a0,80(a0)
    800010e2:	e3cff0ef          	jal	8000071e <uvmdealloc>
    800010e6:	85aa                	mv	a1,a0
    800010e8:	bfc1                	j	800010b8 <growproc+0x1e>

00000000800010ea <kfork>:
{
    800010ea:	7139                	addi	sp,sp,-64
    800010ec:	fc06                	sd	ra,56(sp)
    800010ee:	f822                	sd	s0,48(sp)
    800010f0:	f426                	sd	s1,40(sp)
    800010f2:	e456                	sd	s5,8(sp)
    800010f4:	0080                	addi	s0,sp,64
  struct proc *p = myproc();
    800010f6:	c9fff0ef          	jal	80000d94 <myproc>
    800010fa:	8aaa                	mv	s5,a0
  if((np = allocproc()) == 0){
    800010fc:	ebdff0ef          	jal	80000fb8 <allocproc>
    80001100:	0e050a63          	beqz	a0,800011f4 <kfork+0x10a>
    80001104:	e852                	sd	s4,16(sp)
    80001106:	8a2a                	mv	s4,a0
  if(uvmcopy(p->pagetable, np->pagetable, p->sz) < 0){
    80001108:	048ab603          	ld	a2,72(s5)
    8000110c:	692c                	ld	a1,80(a0)
    8000110e:	050ab503          	ld	a0,80(s5)
    80001112:	f88ff0ef          	jal	8000089a <uvmcopy>
    80001116:	04054863          	bltz	a0,80001166 <kfork+0x7c>
    8000111a:	f04a                	sd	s2,32(sp)
    8000111c:	ec4e                	sd	s3,24(sp)
  np->sz = p->sz;
    8000111e:	048ab783          	ld	a5,72(s5)
    80001122:	04fa3423          	sd	a5,72(s4)
  *(np->trapframe) = *(p->trapframe);
    80001126:	058ab683          	ld	a3,88(s5)
    8000112a:	87b6                	mv	a5,a3
    8000112c:	058a3703          	ld	a4,88(s4)
    80001130:	12068693          	addi	a3,a3,288
    80001134:	6388                	ld	a0,0(a5)
    80001136:	678c                	ld	a1,8(a5)
    80001138:	6b90                	ld	a2,16(a5)
    8000113a:	e308                	sd	a0,0(a4)
    8000113c:	e70c                	sd	a1,8(a4)
    8000113e:	eb10                	sd	a2,16(a4)
    80001140:	6f90                	ld	a2,24(a5)
    80001142:	ef10                	sd	a2,24(a4)
    80001144:	02078793          	addi	a5,a5,32
    80001148:	02070713          	addi	a4,a4,32 # 1020 <_entry-0x7fffefe0>
    8000114c:	fed794e3          	bne	a5,a3,80001134 <kfork+0x4a>
  np->trapframe->a0 = 0;
    80001150:	058a3783          	ld	a5,88(s4)
    80001154:	0607b823          	sd	zero,112(a5)
  for(i = 0; i < NOFILE; i++)
    80001158:	0d0a8493          	addi	s1,s5,208
    8000115c:	0d0a0913          	addi	s2,s4,208
    80001160:	150a8993          	addi	s3,s5,336
    80001164:	a831                	j	80001180 <kfork+0x96>
    freeproc(np);
    80001166:	8552                	mv	a0,s4
    80001168:	e01ff0ef          	jal	80000f68 <freeproc>
    release(&np->lock);
    8000116c:	8552                	mv	a0,s4
    8000116e:	01f040ef          	jal	8000598c <release>
    return -1;
    80001172:	54fd                	li	s1,-1
    80001174:	6a42                	ld	s4,16(sp)
    80001176:	a885                	j	800011e6 <kfork+0xfc>
  for(i = 0; i < NOFILE; i++)
    80001178:	04a1                	addi	s1,s1,8
    8000117a:	0921                	addi	s2,s2,8
    8000117c:	01348963          	beq	s1,s3,8000118e <kfork+0xa4>
    if(p->ofile[i])
    80001180:	6088                	ld	a0,0(s1)
    80001182:	d97d                	beqz	a0,80001178 <kfork+0x8e>
      np->ofile[i] = filedup(p->ofile[i]);
    80001184:	2c2020ef          	jal	80003446 <filedup>
    80001188:	00a93023          	sd	a0,0(s2)
    8000118c:	b7f5                	j	80001178 <kfork+0x8e>
  np->cwd = idup(p->cwd);
    8000118e:	150ab503          	ld	a0,336(s5)
    80001192:	494010ef          	jal	80002626 <idup>
    80001196:	14aa3823          	sd	a0,336(s4)
  safestrcpy(np->name, p->name, sizeof(p->name));
    8000119a:	4641                	li	a2,16
    8000119c:	158a8593          	addi	a1,s5,344
    800011a0:	158a0513          	addi	a0,s4,344
    800011a4:	90eff0ef          	jal	800002b2 <safestrcpy>
  pid = np->pid;
    800011a8:	030a2483          	lw	s1,48(s4)
  release(&np->lock);
    800011ac:	8552                	mv	a0,s4
    800011ae:	7de040ef          	jal	8000598c <release>
  acquire(&wait_lock);
    800011b2:	00009517          	auipc	a0,0x9
    800011b6:	0a650513          	addi	a0,a0,166 # 8000a258 <wait_lock>
    800011ba:	73e040ef          	jal	800058f8 <acquire>
  np->parent = p;
    800011be:	035a3c23          	sd	s5,56(s4)
  release(&wait_lock);
    800011c2:	00009517          	auipc	a0,0x9
    800011c6:	09650513          	addi	a0,a0,150 # 8000a258 <wait_lock>
    800011ca:	7c2040ef          	jal	8000598c <release>
  acquire(&np->lock);
    800011ce:	8552                	mv	a0,s4
    800011d0:	728040ef          	jal	800058f8 <acquire>
  np->state = RUNNABLE;
    800011d4:	478d                	li	a5,3
    800011d6:	00fa2c23          	sw	a5,24(s4)
  release(&np->lock);
    800011da:	8552                	mv	a0,s4
    800011dc:	7b0040ef          	jal	8000598c <release>
  return pid;
    800011e0:	7902                	ld	s2,32(sp)
    800011e2:	69e2                	ld	s3,24(sp)
    800011e4:	6a42                	ld	s4,16(sp)
}
    800011e6:	8526                	mv	a0,s1
    800011e8:	70e2                	ld	ra,56(sp)
    800011ea:	7442                	ld	s0,48(sp)
    800011ec:	74a2                	ld	s1,40(sp)
    800011ee:	6aa2                	ld	s5,8(sp)
    800011f0:	6121                	addi	sp,sp,64
    800011f2:	8082                	ret
    return -1;
    800011f4:	54fd                	li	s1,-1
    800011f6:	bfc5                	j	800011e6 <kfork+0xfc>

00000000800011f8 <scheduler>:
{
    800011f8:	715d                	addi	sp,sp,-80
    800011fa:	e486                	sd	ra,72(sp)
    800011fc:	e0a2                	sd	s0,64(sp)
    800011fe:	fc26                	sd	s1,56(sp)
    80001200:	f84a                	sd	s2,48(sp)
    80001202:	f44e                	sd	s3,40(sp)
    80001204:	f052                	sd	s4,32(sp)
    80001206:	ec56                	sd	s5,24(sp)
    80001208:	e85a                	sd	s6,16(sp)
    8000120a:	e45e                	sd	s7,8(sp)
    8000120c:	e062                	sd	s8,0(sp)
    8000120e:	0880                	addi	s0,sp,80
    80001210:	8792                	mv	a5,tp
  int id = r_tp();
    80001212:	2781                	sext.w	a5,a5
  c->proc = 0;
    80001214:	00779b13          	slli	s6,a5,0x7
    80001218:	00009717          	auipc	a4,0x9
    8000121c:	02870713          	addi	a4,a4,40 # 8000a240 <pid_lock>
    80001220:	975a                	add	a4,a4,s6
    80001222:	02073823          	sd	zero,48(a4)
        swtch(&c->context, &p->context);
    80001226:	00009717          	auipc	a4,0x9
    8000122a:	05270713          	addi	a4,a4,82 # 8000a278 <cpus+0x8>
    8000122e:	9b3a                	add	s6,s6,a4
        p->state = RUNNING;
    80001230:	4c11                	li	s8,4
        c->proc = p;
    80001232:	079e                	slli	a5,a5,0x7
    80001234:	00009a17          	auipc	s4,0x9
    80001238:	00ca0a13          	addi	s4,s4,12 # 8000a240 <pid_lock>
    8000123c:	9a3e                	add	s4,s4,a5
        found = 1;
    8000123e:	4b85                	li	s7,1
    80001240:	a83d                	j	8000127e <scheduler+0x86>
      release(&p->lock);
    80001242:	8526                	mv	a0,s1
    80001244:	748040ef          	jal	8000598c <release>
    for(p = proc; p < &proc[NPROC]; p++) {
    80001248:	16848493          	addi	s1,s1,360
    8000124c:	03248563          	beq	s1,s2,80001276 <scheduler+0x7e>
      acquire(&p->lock);
    80001250:	8526                	mv	a0,s1
    80001252:	6a6040ef          	jal	800058f8 <acquire>
      if(p->state == RUNNABLE) {
    80001256:	4c9c                	lw	a5,24(s1)
    80001258:	ff3795e3          	bne	a5,s3,80001242 <scheduler+0x4a>
        p->state = RUNNING;
    8000125c:	0184ac23          	sw	s8,24(s1)
        c->proc = p;
    80001260:	029a3823          	sd	s1,48(s4)
        swtch(&c->context, &p->context);
    80001264:	06048593          	addi	a1,s1,96
    80001268:	855a                	mv	a0,s6
    8000126a:	5ba000ef          	jal	80001824 <swtch>
        c->proc = 0;
    8000126e:	020a3823          	sd	zero,48(s4)
        found = 1;
    80001272:	8ade                	mv	s5,s7
    80001274:	b7f9                	j	80001242 <scheduler+0x4a>
    if(found == 0) {
    80001276:	000a9463          	bnez	s5,8000127e <scheduler+0x86>
      asm volatile("wfi");
    8000127a:	10500073          	wfi
  asm volatile("csrr %0, sstatus" : "=r" (x) );
    8000127e:	100027f3          	csrr	a5,sstatus
  w_sstatus(r_sstatus() | SSTATUS_SIE);
    80001282:	0027e793          	ori	a5,a5,2
  asm volatile("csrw sstatus, %0" : : "r" (x));
    80001286:	10079073          	csrw	sstatus,a5
  asm volatile("csrr %0, sstatus" : "=r" (x) );
    8000128a:	100027f3          	csrr	a5,sstatus
  w_sstatus(r_sstatus() & ~SSTATUS_SIE);
    8000128e:	9bf5                	andi	a5,a5,-3
  asm volatile("csrw sstatus, %0" : : "r" (x));
    80001290:	10079073          	csrw	sstatus,a5
    int found = 0;
    80001294:	4a81                	li	s5,0
    for(p = proc; p < &proc[NPROC]; p++) {
    80001296:	00009497          	auipc	s1,0x9
    8000129a:	3da48493          	addi	s1,s1,986 # 8000a670 <proc>
      if(p->state == RUNNABLE) {
    8000129e:	498d                	li	s3,3
    for(p = proc; p < &proc[NPROC]; p++) {
    800012a0:	0000f917          	auipc	s2,0xf
    800012a4:	dd090913          	addi	s2,s2,-560 # 80010070 <tickslock>
    800012a8:	b765                	j	80001250 <scheduler+0x58>

00000000800012aa <sched>:
{
    800012aa:	7179                	addi	sp,sp,-48
    800012ac:	f406                	sd	ra,40(sp)
    800012ae:	f022                	sd	s0,32(sp)
    800012b0:	ec26                	sd	s1,24(sp)
    800012b2:	e84a                	sd	s2,16(sp)
    800012b4:	e44e                	sd	s3,8(sp)
    800012b6:	1800                	addi	s0,sp,48
  struct proc *p = myproc();
    800012b8:	addff0ef          	jal	80000d94 <myproc>
    800012bc:	84aa                	mv	s1,a0
  if(!holding(&p->lock))
    800012be:	5ca040ef          	jal	80005888 <holding>
    800012c2:	c935                	beqz	a0,80001336 <sched+0x8c>
  asm volatile("mv %0, tp" : "=r" (x) );
    800012c4:	8792                	mv	a5,tp
  if(mycpu()->noff != 1)
    800012c6:	2781                	sext.w	a5,a5
    800012c8:	079e                	slli	a5,a5,0x7
    800012ca:	00009717          	auipc	a4,0x9
    800012ce:	f7670713          	addi	a4,a4,-138 # 8000a240 <pid_lock>
    800012d2:	97ba                	add	a5,a5,a4
    800012d4:	0a87a703          	lw	a4,168(a5)
    800012d8:	4785                	li	a5,1
    800012da:	06f71463          	bne	a4,a5,80001342 <sched+0x98>
  if(p->state == RUNNING)
    800012de:	4c98                	lw	a4,24(s1)
    800012e0:	4791                	li	a5,4
    800012e2:	06f70663          	beq	a4,a5,8000134e <sched+0xa4>
  asm volatile("csrr %0, sstatus" : "=r" (x) );
    800012e6:	100027f3          	csrr	a5,sstatus
  return (x & SSTATUS_SIE) != 0;
    800012ea:	8b89                	andi	a5,a5,2
  if(intr_get())
    800012ec:	e7bd                	bnez	a5,8000135a <sched+0xb0>
  asm volatile("mv %0, tp" : "=r" (x) );
    800012ee:	8792                	mv	a5,tp
  intena = mycpu()->intena;
    800012f0:	00009917          	auipc	s2,0x9
    800012f4:	f5090913          	addi	s2,s2,-176 # 8000a240 <pid_lock>
    800012f8:	2781                	sext.w	a5,a5
    800012fa:	079e                	slli	a5,a5,0x7
    800012fc:	97ca                	add	a5,a5,s2
    800012fe:	0ac7a983          	lw	s3,172(a5)
    80001302:	8792                	mv	a5,tp
  swtch(&p->context, &mycpu()->context);
    80001304:	2781                	sext.w	a5,a5
    80001306:	079e                	slli	a5,a5,0x7
    80001308:	07a1                	addi	a5,a5,8
    8000130a:	00009597          	auipc	a1,0x9
    8000130e:	f6658593          	addi	a1,a1,-154 # 8000a270 <cpus>
    80001312:	95be                	add	a1,a1,a5
    80001314:	06048513          	addi	a0,s1,96
    80001318:	50c000ef          	jal	80001824 <swtch>
    8000131c:	8792                	mv	a5,tp
  mycpu()->intena = intena;
    8000131e:	2781                	sext.w	a5,a5
    80001320:	079e                	slli	a5,a5,0x7
    80001322:	993e                	add	s2,s2,a5
    80001324:	0b392623          	sw	s3,172(s2)
}
    80001328:	70a2                	ld	ra,40(sp)
    8000132a:	7402                	ld	s0,32(sp)
    8000132c:	64e2                	ld	s1,24(sp)
    8000132e:	6942                	ld	s2,16(sp)
    80001330:	69a2                	ld	s3,8(sp)
    80001332:	6145                	addi	sp,sp,48
    80001334:	8082                	ret
    panic("sched p->lock");
    80001336:	00006517          	auipc	a0,0x6
    8000133a:	e0250513          	addi	a0,a0,-510 # 80007138 <etext+0x138>
    8000133e:	2f8040ef          	jal	80005636 <panic>
    panic("sched locks");
    80001342:	00006517          	auipc	a0,0x6
    80001346:	e0650513          	addi	a0,a0,-506 # 80007148 <etext+0x148>
    8000134a:	2ec040ef          	jal	80005636 <panic>
    panic("sched RUNNING");
    8000134e:	00006517          	auipc	a0,0x6
    80001352:	e0a50513          	addi	a0,a0,-502 # 80007158 <etext+0x158>
    80001356:	2e0040ef          	jal	80005636 <panic>
    panic("sched interruptible");
    8000135a:	00006517          	auipc	a0,0x6
    8000135e:	e0e50513          	addi	a0,a0,-498 # 80007168 <etext+0x168>
    80001362:	2d4040ef          	jal	80005636 <panic>

0000000080001366 <yield>:
{
    80001366:	1101                	addi	sp,sp,-32
    80001368:	ec06                	sd	ra,24(sp)
    8000136a:	e822                	sd	s0,16(sp)
    8000136c:	e426                	sd	s1,8(sp)
    8000136e:	1000                	addi	s0,sp,32
  struct proc *p = myproc();
    80001370:	a25ff0ef          	jal	80000d94 <myproc>
    80001374:	84aa                	mv	s1,a0
  acquire(&p->lock);
    80001376:	582040ef          	jal	800058f8 <acquire>
  p->state = RUNNABLE;
    8000137a:	478d                	li	a5,3
    8000137c:	cc9c                	sw	a5,24(s1)
  sched();
    8000137e:	f2dff0ef          	jal	800012aa <sched>
  release(&p->lock);
    80001382:	8526                	mv	a0,s1
    80001384:	608040ef          	jal	8000598c <release>
}
    80001388:	60e2                	ld	ra,24(sp)
    8000138a:	6442                	ld	s0,16(sp)
    8000138c:	64a2                	ld	s1,8(sp)
    8000138e:	6105                	addi	sp,sp,32
    80001390:	8082                	ret

0000000080001392 <sleep>:

// Sleep on channel chan, releasing condition lock lk.
// Re-acquires lk when awakened.
void
sleep(void *chan, struct spinlock *lk)
{
    80001392:	7179                	addi	sp,sp,-48
    80001394:	f406                	sd	ra,40(sp)
    80001396:	f022                	sd	s0,32(sp)
    80001398:	ec26                	sd	s1,24(sp)
    8000139a:	e84a                	sd	s2,16(sp)
    8000139c:	e44e                	sd	s3,8(sp)
    8000139e:	1800                	addi	s0,sp,48
    800013a0:	89aa                	mv	s3,a0
    800013a2:	892e                	mv	s2,a1
  struct proc *p = myproc();
    800013a4:	9f1ff0ef          	jal	80000d94 <myproc>
    800013a8:	84aa                	mv	s1,a0
  // Once we hold p->lock, we can be
  // guaranteed that we won't miss any wakeup
  // (wakeup locks p->lock),
  // so it's okay to release lk.

  acquire(&p->lock);  //DOC: sleeplock1
    800013aa:	54e040ef          	jal	800058f8 <acquire>
  release(lk);
    800013ae:	854a                	mv	a0,s2
    800013b0:	5dc040ef          	jal	8000598c <release>

  // Go to sleep.
  p->chan = chan;
    800013b4:	0334b023          	sd	s3,32(s1)
  p->state = SLEEPING;
    800013b8:	4789                	li	a5,2
    800013ba:	cc9c                	sw	a5,24(s1)

  sched();
    800013bc:	eefff0ef          	jal	800012aa <sched>

  // Tidy up.
  p->chan = 0;
    800013c0:	0204b023          	sd	zero,32(s1)

  // Reacquire original lock.
  release(&p->lock);
    800013c4:	8526                	mv	a0,s1
    800013c6:	5c6040ef          	jal	8000598c <release>
  acquire(lk);
    800013ca:	854a                	mv	a0,s2
    800013cc:	52c040ef          	jal	800058f8 <acquire>
}
    800013d0:	70a2                	ld	ra,40(sp)
    800013d2:	7402                	ld	s0,32(sp)
    800013d4:	64e2                	ld	s1,24(sp)
    800013d6:	6942                	ld	s2,16(sp)
    800013d8:	69a2                	ld	s3,8(sp)
    800013da:	6145                	addi	sp,sp,48
    800013dc:	8082                	ret

00000000800013de <wakeup>:

// Wake up all processes sleeping on channel chan.
// Caller should hold the condition lock.
void
wakeup(void *chan)
{
    800013de:	7139                	addi	sp,sp,-64
    800013e0:	fc06                	sd	ra,56(sp)
    800013e2:	f822                	sd	s0,48(sp)
    800013e4:	f426                	sd	s1,40(sp)
    800013e6:	f04a                	sd	s2,32(sp)
    800013e8:	ec4e                	sd	s3,24(sp)
    800013ea:	e852                	sd	s4,16(sp)
    800013ec:	e456                	sd	s5,8(sp)
    800013ee:	0080                	addi	s0,sp,64
    800013f0:	8a2a                	mv	s4,a0
  struct proc *p;

  for(p = proc; p < &proc[NPROC]; p++) {
    800013f2:	00009497          	auipc	s1,0x9
    800013f6:	27e48493          	addi	s1,s1,638 # 8000a670 <proc>
    if(p != myproc()){
      acquire(&p->lock);
      if(p->state == SLEEPING && p->chan == chan) {
    800013fa:	4989                	li	s3,2
        p->state = RUNNABLE;
    800013fc:	4a8d                	li	s5,3
  for(p = proc; p < &proc[NPROC]; p++) {
    800013fe:	0000f917          	auipc	s2,0xf
    80001402:	c7290913          	addi	s2,s2,-910 # 80010070 <tickslock>
    80001406:	a801                	j	80001416 <wakeup+0x38>
      }
      release(&p->lock);
    80001408:	8526                	mv	a0,s1
    8000140a:	582040ef          	jal	8000598c <release>
  for(p = proc; p < &proc[NPROC]; p++) {
    8000140e:	16848493          	addi	s1,s1,360
    80001412:	03248263          	beq	s1,s2,80001436 <wakeup+0x58>
    if(p != myproc()){
    80001416:	97fff0ef          	jal	80000d94 <myproc>
    8000141a:	fe950ae3          	beq	a0,s1,8000140e <wakeup+0x30>
      acquire(&p->lock);
    8000141e:	8526                	mv	a0,s1
    80001420:	4d8040ef          	jal	800058f8 <acquire>
      if(p->state == SLEEPING && p->chan == chan) {
    80001424:	4c9c                	lw	a5,24(s1)
    80001426:	ff3791e3          	bne	a5,s3,80001408 <wakeup+0x2a>
    8000142a:	709c                	ld	a5,32(s1)
    8000142c:	fd479ee3          	bne	a5,s4,80001408 <wakeup+0x2a>
        p->state = RUNNABLE;
    80001430:	0154ac23          	sw	s5,24(s1)
    80001434:	bfd1                	j	80001408 <wakeup+0x2a>
    }
  }
}
    80001436:	70e2                	ld	ra,56(sp)
    80001438:	7442                	ld	s0,48(sp)
    8000143a:	74a2                	ld	s1,40(sp)
    8000143c:	7902                	ld	s2,32(sp)
    8000143e:	69e2                	ld	s3,24(sp)
    80001440:	6a42                	ld	s4,16(sp)
    80001442:	6aa2                	ld	s5,8(sp)
    80001444:	6121                	addi	sp,sp,64
    80001446:	8082                	ret

0000000080001448 <reparent>:
{
    80001448:	7179                	addi	sp,sp,-48
    8000144a:	f406                	sd	ra,40(sp)
    8000144c:	f022                	sd	s0,32(sp)
    8000144e:	ec26                	sd	s1,24(sp)
    80001450:	e84a                	sd	s2,16(sp)
    80001452:	e44e                	sd	s3,8(sp)
    80001454:	e052                	sd	s4,0(sp)
    80001456:	1800                	addi	s0,sp,48
    80001458:	892a                	mv	s2,a0
  for(pp = proc; pp < &proc[NPROC]; pp++){
    8000145a:	00009497          	auipc	s1,0x9
    8000145e:	21648493          	addi	s1,s1,534 # 8000a670 <proc>
      pp->parent = initproc;
    80001462:	00009a17          	auipc	s4,0x9
    80001466:	d9ea0a13          	addi	s4,s4,-610 # 8000a200 <initproc>
  for(pp = proc; pp < &proc[NPROC]; pp++){
    8000146a:	0000f997          	auipc	s3,0xf
    8000146e:	c0698993          	addi	s3,s3,-1018 # 80010070 <tickslock>
    80001472:	a029                	j	8000147c <reparent+0x34>
    80001474:	16848493          	addi	s1,s1,360
    80001478:	01348b63          	beq	s1,s3,8000148e <reparent+0x46>
    if(pp->parent == p){
    8000147c:	7c9c                	ld	a5,56(s1)
    8000147e:	ff279be3          	bne	a5,s2,80001474 <reparent+0x2c>
      pp->parent = initproc;
    80001482:	000a3503          	ld	a0,0(s4)
    80001486:	fc88                	sd	a0,56(s1)
      wakeup(initproc);
    80001488:	f57ff0ef          	jal	800013de <wakeup>
    8000148c:	b7e5                	j	80001474 <reparent+0x2c>
}
    8000148e:	70a2                	ld	ra,40(sp)
    80001490:	7402                	ld	s0,32(sp)
    80001492:	64e2                	ld	s1,24(sp)
    80001494:	6942                	ld	s2,16(sp)
    80001496:	69a2                	ld	s3,8(sp)
    80001498:	6a02                	ld	s4,0(sp)
    8000149a:	6145                	addi	sp,sp,48
    8000149c:	8082                	ret

000000008000149e <kexit>:
{
    8000149e:	7179                	addi	sp,sp,-48
    800014a0:	f406                	sd	ra,40(sp)
    800014a2:	f022                	sd	s0,32(sp)
    800014a4:	ec26                	sd	s1,24(sp)
    800014a6:	e84a                	sd	s2,16(sp)
    800014a8:	e44e                	sd	s3,8(sp)
    800014aa:	e052                	sd	s4,0(sp)
    800014ac:	1800                	addi	s0,sp,48
    800014ae:	8a2a                	mv	s4,a0
  struct proc *p = myproc();
    800014b0:	8e5ff0ef          	jal	80000d94 <myproc>
    800014b4:	89aa                	mv	s3,a0
  if(p == initproc)
    800014b6:	00009797          	auipc	a5,0x9
    800014ba:	d4a7b783          	ld	a5,-694(a5) # 8000a200 <initproc>
    800014be:	0d050493          	addi	s1,a0,208
    800014c2:	15050913          	addi	s2,a0,336
    800014c6:	00a79b63          	bne	a5,a0,800014dc <kexit+0x3e>
    panic("init exiting");
    800014ca:	00006517          	auipc	a0,0x6
    800014ce:	cb650513          	addi	a0,a0,-842 # 80007180 <etext+0x180>
    800014d2:	164040ef          	jal	80005636 <panic>
  for(int fd = 0; fd < NOFILE; fd++){
    800014d6:	04a1                	addi	s1,s1,8
    800014d8:	01248963          	beq	s1,s2,800014ea <kexit+0x4c>
    if(p->ofile[fd]){
    800014dc:	6088                	ld	a0,0(s1)
    800014de:	dd65                	beqz	a0,800014d6 <kexit+0x38>
      fileclose(f);
    800014e0:	7ad010ef          	jal	8000348c <fileclose>
      p->ofile[fd] = 0;
    800014e4:	0004b023          	sd	zero,0(s1)
    800014e8:	b7fd                	j	800014d6 <kexit+0x38>
  begin_op();
    800014ea:	37f010ef          	jal	80003068 <begin_op>
  iput(p->cwd);
    800014ee:	1509b503          	ld	a0,336(s3)
    800014f2:	2ec010ef          	jal	800027de <iput>
  end_op();
    800014f6:	3e3010ef          	jal	800030d8 <end_op>
  p->cwd = 0;
    800014fa:	1409b823          	sd	zero,336(s3)
  acquire(&wait_lock);
    800014fe:	00009517          	auipc	a0,0x9
    80001502:	d5a50513          	addi	a0,a0,-678 # 8000a258 <wait_lock>
    80001506:	3f2040ef          	jal	800058f8 <acquire>
  reparent(p);
    8000150a:	854e                	mv	a0,s3
    8000150c:	f3dff0ef          	jal	80001448 <reparent>
  wakeup(p->parent);
    80001510:	0389b503          	ld	a0,56(s3)
    80001514:	ecbff0ef          	jal	800013de <wakeup>
  acquire(&p->lock);
    80001518:	854e                	mv	a0,s3
    8000151a:	3de040ef          	jal	800058f8 <acquire>
  p->xstate = status;
    8000151e:	0349a623          	sw	s4,44(s3)
  p->state = ZOMBIE;
    80001522:	4795                	li	a5,5
    80001524:	00f9ac23          	sw	a5,24(s3)
  release(&wait_lock);
    80001528:	00009517          	auipc	a0,0x9
    8000152c:	d3050513          	addi	a0,a0,-720 # 8000a258 <wait_lock>
    80001530:	45c040ef          	jal	8000598c <release>
  sched();
    80001534:	d77ff0ef          	jal	800012aa <sched>
  panic("zombie exit");
    80001538:	00006517          	auipc	a0,0x6
    8000153c:	c5850513          	addi	a0,a0,-936 # 80007190 <etext+0x190>
    80001540:	0f6040ef          	jal	80005636 <panic>

0000000080001544 <kkill>:
// Kill the process with the given pid.
// The victim won't exit until it tries to return
// to user space (see usertrap() in trap.c).
int
kkill(int pid)
{
    80001544:	7179                	addi	sp,sp,-48
    80001546:	f406                	sd	ra,40(sp)
    80001548:	f022                	sd	s0,32(sp)
    8000154a:	ec26                	sd	s1,24(sp)
    8000154c:	e84a                	sd	s2,16(sp)
    8000154e:	e44e                	sd	s3,8(sp)
    80001550:	1800                	addi	s0,sp,48
    80001552:	892a                	mv	s2,a0
  struct proc *p;

  for(p = proc; p < &proc[NPROC]; p++){
    80001554:	00009497          	auipc	s1,0x9
    80001558:	11c48493          	addi	s1,s1,284 # 8000a670 <proc>
    8000155c:	0000f997          	auipc	s3,0xf
    80001560:	b1498993          	addi	s3,s3,-1260 # 80010070 <tickslock>
    acquire(&p->lock);
    80001564:	8526                	mv	a0,s1
    80001566:	392040ef          	jal	800058f8 <acquire>
    if(p->pid == pid){
    8000156a:	589c                	lw	a5,48(s1)
    8000156c:	01278b63          	beq	a5,s2,80001582 <kkill+0x3e>
        p->state = RUNNABLE;
      }
      release(&p->lock);
      return 0;
    }
    release(&p->lock);
    80001570:	8526                	mv	a0,s1
    80001572:	41a040ef          	jal	8000598c <release>
  for(p = proc; p < &proc[NPROC]; p++){
    80001576:	16848493          	addi	s1,s1,360
    8000157a:	ff3495e3          	bne	s1,s3,80001564 <kkill+0x20>
  }
  return -1;
    8000157e:	557d                	li	a0,-1
    80001580:	a819                	j	80001596 <kkill+0x52>
      p->killed = 1;
    80001582:	4785                	li	a5,1
    80001584:	d49c                	sw	a5,40(s1)
      if(p->state == SLEEPING){
    80001586:	4c98                	lw	a4,24(s1)
    80001588:	4789                	li	a5,2
    8000158a:	00f70d63          	beq	a4,a5,800015a4 <kkill+0x60>
      release(&p->lock);
    8000158e:	8526                	mv	a0,s1
    80001590:	3fc040ef          	jal	8000598c <release>
      return 0;
    80001594:	4501                	li	a0,0
}
    80001596:	70a2                	ld	ra,40(sp)
    80001598:	7402                	ld	s0,32(sp)
    8000159a:	64e2                	ld	s1,24(sp)
    8000159c:	6942                	ld	s2,16(sp)
    8000159e:	69a2                	ld	s3,8(sp)
    800015a0:	6145                	addi	sp,sp,48
    800015a2:	8082                	ret
        p->state = RUNNABLE;
    800015a4:	478d                	li	a5,3
    800015a6:	cc9c                	sw	a5,24(s1)
    800015a8:	b7dd                	j	8000158e <kkill+0x4a>

00000000800015aa <setkilled>:

void
setkilled(struct proc *p)
{
    800015aa:	1101                	addi	sp,sp,-32
    800015ac:	ec06                	sd	ra,24(sp)
    800015ae:	e822                	sd	s0,16(sp)
    800015b0:	e426                	sd	s1,8(sp)
    800015b2:	1000                	addi	s0,sp,32
    800015b4:	84aa                	mv	s1,a0
  acquire(&p->lock);
    800015b6:	342040ef          	jal	800058f8 <acquire>
  p->killed = 1;
    800015ba:	4785                	li	a5,1
    800015bc:	d49c                	sw	a5,40(s1)
  release(&p->lock);
    800015be:	8526                	mv	a0,s1
    800015c0:	3cc040ef          	jal	8000598c <release>
}
    800015c4:	60e2                	ld	ra,24(sp)
    800015c6:	6442                	ld	s0,16(sp)
    800015c8:	64a2                	ld	s1,8(sp)
    800015ca:	6105                	addi	sp,sp,32
    800015cc:	8082                	ret

00000000800015ce <killed>:

int
killed(struct proc *p)
{
    800015ce:	1101                	addi	sp,sp,-32
    800015d0:	ec06                	sd	ra,24(sp)
    800015d2:	e822                	sd	s0,16(sp)
    800015d4:	e426                	sd	s1,8(sp)
    800015d6:	e04a                	sd	s2,0(sp)
    800015d8:	1000                	addi	s0,sp,32
    800015da:	84aa                	mv	s1,a0
  int k;
  
  acquire(&p->lock);
    800015dc:	31c040ef          	jal	800058f8 <acquire>
  k = p->killed;
    800015e0:	549c                	lw	a5,40(s1)
    800015e2:	893e                	mv	s2,a5
  release(&p->lock);
    800015e4:	8526                	mv	a0,s1
    800015e6:	3a6040ef          	jal	8000598c <release>
  return k;
}
    800015ea:	854a                	mv	a0,s2
    800015ec:	60e2                	ld	ra,24(sp)
    800015ee:	6442                	ld	s0,16(sp)
    800015f0:	64a2                	ld	s1,8(sp)
    800015f2:	6902                	ld	s2,0(sp)
    800015f4:	6105                	addi	sp,sp,32
    800015f6:	8082                	ret

00000000800015f8 <kwait>:
{
    800015f8:	715d                	addi	sp,sp,-80
    800015fa:	e486                	sd	ra,72(sp)
    800015fc:	e0a2                	sd	s0,64(sp)
    800015fe:	fc26                	sd	s1,56(sp)
    80001600:	f84a                	sd	s2,48(sp)
    80001602:	f44e                	sd	s3,40(sp)
    80001604:	f052                	sd	s4,32(sp)
    80001606:	ec56                	sd	s5,24(sp)
    80001608:	e85a                	sd	s6,16(sp)
    8000160a:	e45e                	sd	s7,8(sp)
    8000160c:	0880                	addi	s0,sp,80
    8000160e:	8baa                	mv	s7,a0
  struct proc *p = myproc();
    80001610:	f84ff0ef          	jal	80000d94 <myproc>
    80001614:	892a                	mv	s2,a0
  acquire(&wait_lock);
    80001616:	00009517          	auipc	a0,0x9
    8000161a:	c4250513          	addi	a0,a0,-958 # 8000a258 <wait_lock>
    8000161e:	2da040ef          	jal	800058f8 <acquire>
        if(pp->state == ZOMBIE){
    80001622:	4a15                	li	s4,5
        havekids = 1;
    80001624:	4a85                	li	s5,1
    for(pp = proc; pp < &proc[NPROC]; pp++){
    80001626:	0000f997          	auipc	s3,0xf
    8000162a:	a4a98993          	addi	s3,s3,-1462 # 80010070 <tickslock>
    sleep(p, &wait_lock);  //DOC: wait-sleep
    8000162e:	00009b17          	auipc	s6,0x9
    80001632:	c2ab0b13          	addi	s6,s6,-982 # 8000a258 <wait_lock>
    80001636:	a869                	j	800016d0 <kwait+0xd8>
          pid = pp->pid;
    80001638:	0304a983          	lw	s3,48(s1)
          if(addr != 0 && copyout(p->pagetable, addr, (char *)&pp->xstate,
    8000163c:	000b8c63          	beqz	s7,80001654 <kwait+0x5c>
    80001640:	4691                	li	a3,4
    80001642:	02c48613          	addi	a2,s1,44
    80001646:	85de                	mv	a1,s7
    80001648:	05093503          	ld	a0,80(s2)
    8000164c:	c6eff0ef          	jal	80000aba <copyout>
    80001650:	02054a63          	bltz	a0,80001684 <kwait+0x8c>
          freeproc(pp);
    80001654:	8526                	mv	a0,s1
    80001656:	913ff0ef          	jal	80000f68 <freeproc>
          release(&pp->lock);
    8000165a:	8526                	mv	a0,s1
    8000165c:	330040ef          	jal	8000598c <release>
          release(&wait_lock);
    80001660:	00009517          	auipc	a0,0x9
    80001664:	bf850513          	addi	a0,a0,-1032 # 8000a258 <wait_lock>
    80001668:	324040ef          	jal	8000598c <release>
}
    8000166c:	854e                	mv	a0,s3
    8000166e:	60a6                	ld	ra,72(sp)
    80001670:	6406                	ld	s0,64(sp)
    80001672:	74e2                	ld	s1,56(sp)
    80001674:	7942                	ld	s2,48(sp)
    80001676:	79a2                	ld	s3,40(sp)
    80001678:	7a02                	ld	s4,32(sp)
    8000167a:	6ae2                	ld	s5,24(sp)
    8000167c:	6b42                	ld	s6,16(sp)
    8000167e:	6ba2                	ld	s7,8(sp)
    80001680:	6161                	addi	sp,sp,80
    80001682:	8082                	ret
            release(&pp->lock);
    80001684:	8526                	mv	a0,s1
    80001686:	306040ef          	jal	8000598c <release>
            release(&wait_lock);
    8000168a:	00009517          	auipc	a0,0x9
    8000168e:	bce50513          	addi	a0,a0,-1074 # 8000a258 <wait_lock>
    80001692:	2fa040ef          	jal	8000598c <release>
            return -1;
    80001696:	59fd                	li	s3,-1
    80001698:	bfd1                	j	8000166c <kwait+0x74>
    for(pp = proc; pp < &proc[NPROC]; pp++){
    8000169a:	16848493          	addi	s1,s1,360
    8000169e:	03348063          	beq	s1,s3,800016be <kwait+0xc6>
      if(pp->parent == p){
    800016a2:	7c9c                	ld	a5,56(s1)
    800016a4:	ff279be3          	bne	a5,s2,8000169a <kwait+0xa2>
        acquire(&pp->lock);
    800016a8:	8526                	mv	a0,s1
    800016aa:	24e040ef          	jal	800058f8 <acquire>
        if(pp->state == ZOMBIE){
    800016ae:	4c9c                	lw	a5,24(s1)
    800016b0:	f94784e3          	beq	a5,s4,80001638 <kwait+0x40>
        release(&pp->lock);
    800016b4:	8526                	mv	a0,s1
    800016b6:	2d6040ef          	jal	8000598c <release>
        havekids = 1;
    800016ba:	8756                	mv	a4,s5
    800016bc:	bff9                	j	8000169a <kwait+0xa2>
    if(!havekids || killed(p)){
    800016be:	cf19                	beqz	a4,800016dc <kwait+0xe4>
    800016c0:	854a                	mv	a0,s2
    800016c2:	f0dff0ef          	jal	800015ce <killed>
    800016c6:	e919                	bnez	a0,800016dc <kwait+0xe4>
    sleep(p, &wait_lock);  //DOC: wait-sleep
    800016c8:	85da                	mv	a1,s6
    800016ca:	854a                	mv	a0,s2
    800016cc:	cc7ff0ef          	jal	80001392 <sleep>
    havekids = 0;
    800016d0:	4701                	li	a4,0
    for(pp = proc; pp < &proc[NPROC]; pp++){
    800016d2:	00009497          	auipc	s1,0x9
    800016d6:	f9e48493          	addi	s1,s1,-98 # 8000a670 <proc>
    800016da:	b7e1                	j	800016a2 <kwait+0xaa>
      release(&wait_lock);
    800016dc:	00009517          	auipc	a0,0x9
    800016e0:	b7c50513          	addi	a0,a0,-1156 # 8000a258 <wait_lock>
    800016e4:	2a8040ef          	jal	8000598c <release>
      return -1;
    800016e8:	59fd                	li	s3,-1
    800016ea:	b749                	j	8000166c <kwait+0x74>

00000000800016ec <either_copyout>:
// Copy to either a user address, or kernel address,
// depending on usr_dst.
// Returns 0 on success, -1 on error.
int
either_copyout(int user_dst, uint64 dst, void *src, uint64 len)
{
    800016ec:	7179                	addi	sp,sp,-48
    800016ee:	f406                	sd	ra,40(sp)
    800016f0:	f022                	sd	s0,32(sp)
    800016f2:	ec26                	sd	s1,24(sp)
    800016f4:	e84a                	sd	s2,16(sp)
    800016f6:	e44e                	sd	s3,8(sp)
    800016f8:	e052                	sd	s4,0(sp)
    800016fa:	1800                	addi	s0,sp,48
    800016fc:	84aa                	mv	s1,a0
    800016fe:	8a2e                	mv	s4,a1
    80001700:	89b2                	mv	s3,a2
    80001702:	8936                	mv	s2,a3
  struct proc *p = myproc();
    80001704:	e90ff0ef          	jal	80000d94 <myproc>
  if(user_dst){
    80001708:	cc99                	beqz	s1,80001726 <either_copyout+0x3a>
    return copyout(p->pagetable, dst, src, len);
    8000170a:	86ca                	mv	a3,s2
    8000170c:	864e                	mv	a2,s3
    8000170e:	85d2                	mv	a1,s4
    80001710:	6928                	ld	a0,80(a0)
    80001712:	ba8ff0ef          	jal	80000aba <copyout>
  } else {
    memmove((char *)dst, src, len);
    return 0;
  }
}
    80001716:	70a2                	ld	ra,40(sp)
    80001718:	7402                	ld	s0,32(sp)
    8000171a:	64e2                	ld	s1,24(sp)
    8000171c:	6942                	ld	s2,16(sp)
    8000171e:	69a2                	ld	s3,8(sp)
    80001720:	6a02                	ld	s4,0(sp)
    80001722:	6145                	addi	sp,sp,48
    80001724:	8082                	ret
    memmove((char *)dst, src, len);
    80001726:	0009061b          	sext.w	a2,s2
    8000172a:	85ce                	mv	a1,s3
    8000172c:	8552                	mv	a0,s4
    8000172e:	a91fe0ef          	jal	800001be <memmove>
    return 0;
    80001732:	8526                	mv	a0,s1
    80001734:	b7cd                	j	80001716 <either_copyout+0x2a>

0000000080001736 <either_copyin>:
// Copy from either a user address, or kernel address,
// depending on usr_src.
// Returns 0 on success, -1 on error.
int
either_copyin(void *dst, int user_src, uint64 src, uint64 len)
{
    80001736:	7179                	addi	sp,sp,-48
    80001738:	f406                	sd	ra,40(sp)
    8000173a:	f022                	sd	s0,32(sp)
    8000173c:	ec26                	sd	s1,24(sp)
    8000173e:	e84a                	sd	s2,16(sp)
    80001740:	e44e                	sd	s3,8(sp)
    80001742:	e052                	sd	s4,0(sp)
    80001744:	1800                	addi	s0,sp,48
    80001746:	8a2a                	mv	s4,a0
    80001748:	84ae                	mv	s1,a1
    8000174a:	89b2                	mv	s3,a2
    8000174c:	8936                	mv	s2,a3
  struct proc *p = myproc();
    8000174e:	e46ff0ef          	jal	80000d94 <myproc>
  if(user_src){
    80001752:	cc99                	beqz	s1,80001770 <either_copyin+0x3a>
    return copyin(p->pagetable, dst, src, len);
    80001754:	86ca                	mv	a3,s2
    80001756:	864e                	mv	a2,s3
    80001758:	85d2                	mv	a1,s4
    8000175a:	6928                	ld	a0,80(a0)
    8000175c:	c1cff0ef          	jal	80000b78 <copyin>
  } else {
    memmove(dst, (char*)src, len);
    return 0;
  }
}
    80001760:	70a2                	ld	ra,40(sp)
    80001762:	7402                	ld	s0,32(sp)
    80001764:	64e2                	ld	s1,24(sp)
    80001766:	6942                	ld	s2,16(sp)
    80001768:	69a2                	ld	s3,8(sp)
    8000176a:	6a02                	ld	s4,0(sp)
    8000176c:	6145                	addi	sp,sp,48
    8000176e:	8082                	ret
    memmove(dst, (char*)src, len);
    80001770:	0009061b          	sext.w	a2,s2
    80001774:	85ce                	mv	a1,s3
    80001776:	8552                	mv	a0,s4
    80001778:	a47fe0ef          	jal	800001be <memmove>
    return 0;
    8000177c:	8526                	mv	a0,s1
    8000177e:	b7cd                	j	80001760 <either_copyin+0x2a>

0000000080001780 <procdump>:
// Print a process listing to console.  For debugging.
// Runs when user types ^P on console.
// No lock to avoid wedging a stuck machine further.
void
procdump(void)
{
    80001780:	715d                	addi	sp,sp,-80
    80001782:	e486                	sd	ra,72(sp)
    80001784:	e0a2                	sd	s0,64(sp)
    80001786:	fc26                	sd	s1,56(sp)
    80001788:	f84a                	sd	s2,48(sp)
    8000178a:	f44e                	sd	s3,40(sp)
    8000178c:	f052                	sd	s4,32(sp)
    8000178e:	ec56                	sd	s5,24(sp)
    80001790:	e85a                	sd	s6,16(sp)
    80001792:	e45e                	sd	s7,8(sp)
    80001794:	0880                	addi	s0,sp,80
  [ZOMBIE]    "zombie"
  };
  struct proc *p;
  char *state;

  printf("\n");
    80001796:	00006517          	auipc	a0,0x6
    8000179a:	88250513          	addi	a0,a0,-1918 # 80007018 <etext+0x18>
    8000179e:	36f030ef          	jal	8000530c <printf>
  for(p = proc; p < &proc[NPROC]; p++){
    800017a2:	00009497          	auipc	s1,0x9
    800017a6:	02648493          	addi	s1,s1,38 # 8000a7c8 <proc+0x158>
    800017aa:	0000f917          	auipc	s2,0xf
    800017ae:	a1e90913          	addi	s2,s2,-1506 # 800101c8 <bcache+0x140>
    if(p->state == UNUSED)
      continue;
    if(p->state >= 0 && p->state < NELEM(states) && states[p->state])
    800017b2:	4b15                	li	s6,5
      state = states[p->state];
    else
      state = "???";
    800017b4:	00006997          	auipc	s3,0x6
    800017b8:	9ec98993          	addi	s3,s3,-1556 # 800071a0 <etext+0x1a0>
    printf("%d %s %s", p->pid, state, p->name);
    800017bc:	00006a97          	auipc	s5,0x6
    800017c0:	9eca8a93          	addi	s5,s5,-1556 # 800071a8 <etext+0x1a8>
    printf("\n");
    800017c4:	00006a17          	auipc	s4,0x6
    800017c8:	854a0a13          	addi	s4,s4,-1964 # 80007018 <etext+0x18>
    if(p->state >= 0 && p->state < NELEM(states) && states[p->state])
    800017cc:	00006b97          	auipc	s7,0x6
    800017d0:	f44b8b93          	addi	s7,s7,-188 # 80007710 <states.0>
    800017d4:	a829                	j	800017ee <procdump+0x6e>
    printf("%d %s %s", p->pid, state, p->name);
    800017d6:	ed86a583          	lw	a1,-296(a3)
    800017da:	8556                	mv	a0,s5
    800017dc:	331030ef          	jal	8000530c <printf>
    printf("\n");
    800017e0:	8552                	mv	a0,s4
    800017e2:	32b030ef          	jal	8000530c <printf>
  for(p = proc; p < &proc[NPROC]; p++){
    800017e6:	16848493          	addi	s1,s1,360
    800017ea:	03248263          	beq	s1,s2,8000180e <procdump+0x8e>
    if(p->state == UNUSED)
    800017ee:	86a6                	mv	a3,s1
    800017f0:	ec04a783          	lw	a5,-320(s1)
    800017f4:	dbed                	beqz	a5,800017e6 <procdump+0x66>
      state = "???";
    800017f6:	864e                	mv	a2,s3
    if(p->state >= 0 && p->state < NELEM(states) && states[p->state])
    800017f8:	fcfb6fe3          	bltu	s6,a5,800017d6 <procdump+0x56>
    800017fc:	02079713          	slli	a4,a5,0x20
    80001800:	01d75793          	srli	a5,a4,0x1d
    80001804:	97de                	add	a5,a5,s7
    80001806:	6390                	ld	a2,0(a5)
    80001808:	f679                	bnez	a2,800017d6 <procdump+0x56>
      state = "???";
    8000180a:	864e                	mv	a2,s3
    8000180c:	b7e9                	j	800017d6 <procdump+0x56>
  }
}
    8000180e:	60a6                	ld	ra,72(sp)
    80001810:	6406                	ld	s0,64(sp)
    80001812:	74e2                	ld	s1,56(sp)
    80001814:	7942                	ld	s2,48(sp)
    80001816:	79a2                	ld	s3,40(sp)
    80001818:	7a02                	ld	s4,32(sp)
    8000181a:	6ae2                	ld	s5,24(sp)
    8000181c:	6b42                	ld	s6,16(sp)
    8000181e:	6ba2                	ld	s7,8(sp)
    80001820:	6161                	addi	sp,sp,80
    80001822:	8082                	ret

0000000080001824 <swtch>:
# Save current registers in old. Load from new.	


.globl swtch
swtch:
        sd ra, 0(a0)
    80001824:	00153023          	sd	ra,0(a0)
        sd sp, 8(a0)
    80001828:	00253423          	sd	sp,8(a0)
        sd s0, 16(a0)
    8000182c:	e900                	sd	s0,16(a0)
        sd s1, 24(a0)
    8000182e:	ed04                	sd	s1,24(a0)
        sd s2, 32(a0)
    80001830:	03253023          	sd	s2,32(a0)
        sd s3, 40(a0)
    80001834:	03353423          	sd	s3,40(a0)
        sd s4, 48(a0)
    80001838:	03453823          	sd	s4,48(a0)
        sd s5, 56(a0)
    8000183c:	03553c23          	sd	s5,56(a0)
        sd s6, 64(a0)
    80001840:	05653023          	sd	s6,64(a0)
        sd s7, 72(a0)
    80001844:	05753423          	sd	s7,72(a0)
        sd s8, 80(a0)
    80001848:	05853823          	sd	s8,80(a0)
        sd s9, 88(a0)
    8000184c:	05953c23          	sd	s9,88(a0)
        sd s10, 96(a0)
    80001850:	07a53023          	sd	s10,96(a0)
        sd s11, 104(a0)
    80001854:	07b53423          	sd	s11,104(a0)

        ld ra, 0(a1)
    80001858:	0005b083          	ld	ra,0(a1)
        ld sp, 8(a1)
    8000185c:	0085b103          	ld	sp,8(a1)
        ld s0, 16(a1)
    80001860:	6980                	ld	s0,16(a1)
        ld s1, 24(a1)
    80001862:	6d84                	ld	s1,24(a1)
        ld s2, 32(a1)
    80001864:	0205b903          	ld	s2,32(a1)
        ld s3, 40(a1)
    80001868:	0285b983          	ld	s3,40(a1)
        ld s4, 48(a1)
    8000186c:	0305ba03          	ld	s4,48(a1)
        ld s5, 56(a1)
    80001870:	0385ba83          	ld	s5,56(a1)
        ld s6, 64(a1)
    80001874:	0405bb03          	ld	s6,64(a1)
        ld s7, 72(a1)
    80001878:	0485bb83          	ld	s7,72(a1)
        ld s8, 80(a1)
    8000187c:	0505bc03          	ld	s8,80(a1)
        ld s9, 88(a1)
    80001880:	0585bc83          	ld	s9,88(a1)
        ld s10, 96(a1)
    80001884:	0605bd03          	ld	s10,96(a1)
        ld s11, 104(a1)
    80001888:	0685bd83          	ld	s11,104(a1)
        
        ret
    8000188c:	8082                	ret

000000008000188e <trapinit>:

extern int devintr();

void
trapinit(void)
{
    8000188e:	1141                	addi	sp,sp,-16
    80001890:	e406                	sd	ra,8(sp)
    80001892:	e022                	sd	s0,0(sp)
    80001894:	0800                	addi	s0,sp,16
  initlock(&tickslock, "time");
    80001896:	00006597          	auipc	a1,0x6
    8000189a:	95258593          	addi	a1,a1,-1710 # 800071e8 <etext+0x1e8>
    8000189e:	0000e517          	auipc	a0,0xe
    800018a2:	7d250513          	addi	a0,a0,2002 # 80010070 <tickslock>
    800018a6:	7c9030ef          	jal	8000586e <initlock>
}
    800018aa:	60a2                	ld	ra,8(sp)
    800018ac:	6402                	ld	s0,0(sp)
    800018ae:	0141                	addi	sp,sp,16
    800018b0:	8082                	ret

00000000800018b2 <trapinithart>:

// set up to take exceptions and traps while in the kernel.
void
trapinithart(void)
{
    800018b2:	1141                	addi	sp,sp,-16
    800018b4:	e406                	sd	ra,8(sp)
    800018b6:	e022                	sd	s0,0(sp)
    800018b8:	0800                	addi	s0,sp,16
  asm volatile("csrw stvec, %0" : : "r" (x));
    800018ba:	00003797          	auipc	a5,0x3
    800018be:	f8678793          	addi	a5,a5,-122 # 80004840 <kernelvec>
    800018c2:	10579073          	csrw	stvec,a5
  w_stvec((uint64)kernelvec);
}
    800018c6:	60a2                	ld	ra,8(sp)
    800018c8:	6402                	ld	s0,0(sp)
    800018ca:	0141                	addi	sp,sp,16
    800018cc:	8082                	ret

00000000800018ce <prepare_return>:
//
// set up trapframe and control registers for a return to user space
//
void
prepare_return(void)
{
    800018ce:	1141                	addi	sp,sp,-16
    800018d0:	e406                	sd	ra,8(sp)
    800018d2:	e022                	sd	s0,0(sp)
    800018d4:	0800                	addi	s0,sp,16
  struct proc *p = myproc();
    800018d6:	cbeff0ef          	jal	80000d94 <myproc>
  asm volatile("csrr %0, sstatus" : "=r" (x) );
    800018da:	100027f3          	csrr	a5,sstatus
  w_sstatus(r_sstatus() & ~SSTATUS_SIE);
    800018de:	9bf5                	andi	a5,a5,-3
  asm volatile("csrw sstatus, %0" : : "r" (x));
    800018e0:	10079073          	csrw	sstatus,a5
  // kerneltrap() to usertrap(). because a trap from kernel
  // code to usertrap would be a disaster, turn off interrupts.
  intr_off();

  // send syscalls, interrupts, and exceptions to uservec in trampoline.S
  uint64 trampoline_uservec = TRAMPOLINE + (uservec - trampoline);
    800018e4:	04000737          	lui	a4,0x4000
    800018e8:	177d                	addi	a4,a4,-1 # 3ffffff <_entry-0x7c000001>
    800018ea:	0732                	slli	a4,a4,0xc
    800018ec:	00004797          	auipc	a5,0x4
    800018f0:	71478793          	addi	a5,a5,1812 # 80006000 <_trampoline>
    800018f4:	00004697          	auipc	a3,0x4
    800018f8:	70c68693          	addi	a3,a3,1804 # 80006000 <_trampoline>
    800018fc:	8f95                	sub	a5,a5,a3
    800018fe:	97ba                	add	a5,a5,a4
  asm volatile("csrw stvec, %0" : : "r" (x));
    80001900:	10579073          	csrw	stvec,a5
  w_stvec(trampoline_uservec);

  // set up trapframe values that uservec will need when
  // the process next traps into the kernel.
  p->trapframe->kernel_satp = r_satp();         // kernel page table
    80001904:	6d3c                	ld	a5,88(a0)
  asm volatile("csrr %0, satp" : "=r" (x) );
    80001906:	18002773          	csrr	a4,satp
    8000190a:	e398                	sd	a4,0(a5)
  p->trapframe->kernel_sp = p->kstack + PGSIZE; // process's kernel stack
    8000190c:	6d38                	ld	a4,88(a0)
    8000190e:	613c                	ld	a5,64(a0)
    80001910:	6685                	lui	a3,0x1
    80001912:	97b6                	add	a5,a5,a3
    80001914:	e71c                	sd	a5,8(a4)
  p->trapframe->kernel_trap = (uint64)usertrap;
    80001916:	6d3c                	ld	a5,88(a0)
    80001918:	00000717          	auipc	a4,0x0
    8000191c:	0fc70713          	addi	a4,a4,252 # 80001a14 <usertrap>
    80001920:	eb98                	sd	a4,16(a5)
  p->trapframe->kernel_hartid = r_tp();         // hartid for cpuid()
    80001922:	6d3c                	ld	a5,88(a0)
  asm volatile("mv %0, tp" : "=r" (x) );
    80001924:	8712                	mv	a4,tp
    80001926:	f398                	sd	a4,32(a5)
  asm volatile("csrr %0, sstatus" : "=r" (x) );
    80001928:	100027f3          	csrr	a5,sstatus
  // set up the registers that trampoline.S's sret will use
  // to get to user space.
  
  // set S Previous Privilege mode to User.
  unsigned long x = r_sstatus();
  x &= ~SSTATUS_SPP; // clear SPP to 0 for user mode
    8000192c:	eff7f793          	andi	a5,a5,-257
  x |= SSTATUS_SPIE; // enable interrupts in user mode
    80001930:	0207e793          	ori	a5,a5,32
  asm volatile("csrw sstatus, %0" : : "r" (x));
    80001934:	10079073          	csrw	sstatus,a5
  w_sstatus(x);

  // set S Exception Program Counter to the saved user pc.
  w_sepc(p->trapframe->epc);
    80001938:	6d3c                	ld	a5,88(a0)
  asm volatile("csrw sepc, %0" : : "r" (x));
    8000193a:	6f9c                	ld	a5,24(a5)
    8000193c:	14179073          	csrw	sepc,a5
}
    80001940:	60a2                	ld	ra,8(sp)
    80001942:	6402                	ld	s0,0(sp)
    80001944:	0141                	addi	sp,sp,16
    80001946:	8082                	ret

0000000080001948 <clockintr>:
  w_sstatus(sstatus);
}

void
clockintr()
{
    80001948:	1141                	addi	sp,sp,-16
    8000194a:	e406                	sd	ra,8(sp)
    8000194c:	e022                	sd	s0,0(sp)
    8000194e:	0800                	addi	s0,sp,16
  if(cpuid() == 0){
    80001950:	c10ff0ef          	jal	80000d60 <cpuid>
    80001954:	cd11                	beqz	a0,80001970 <clockintr+0x28>
  asm volatile("csrr %0, time" : "=r" (x) );
    80001956:	c01027f3          	rdtime	a5
  }

  // ask for the next timer interrupt. this also clears
  // the interrupt request. 1000000 is about a tenth
  // of a second.
  w_stimecmp(r_time() + 1000000);
    8000195a:	000f4737          	lui	a4,0xf4
    8000195e:	24070713          	addi	a4,a4,576 # f4240 <_entry-0x7ff0bdc0>
    80001962:	97ba                	add	a5,a5,a4
  asm volatile("csrw 0x14d, %0" : : "r" (x));
    80001964:	14d79073          	csrw	stimecmp,a5
}
    80001968:	60a2                	ld	ra,8(sp)
    8000196a:	6402                	ld	s0,0(sp)
    8000196c:	0141                	addi	sp,sp,16
    8000196e:	8082                	ret
    acquire(&tickslock);
    80001970:	0000e517          	auipc	a0,0xe
    80001974:	70050513          	addi	a0,a0,1792 # 80010070 <tickslock>
    80001978:	781030ef          	jal	800058f8 <acquire>
    ticks++;
    8000197c:	00009717          	auipc	a4,0x9
    80001980:	88c70713          	addi	a4,a4,-1908 # 8000a208 <ticks>
    80001984:	431c                	lw	a5,0(a4)
    80001986:	2785                	addiw	a5,a5,1
    80001988:	c31c                	sw	a5,0(a4)
    wakeup(&ticks);
    8000198a:	853a                	mv	a0,a4
    8000198c:	a53ff0ef          	jal	800013de <wakeup>
    release(&tickslock);
    80001990:	0000e517          	auipc	a0,0xe
    80001994:	6e050513          	addi	a0,a0,1760 # 80010070 <tickslock>
    80001998:	7f5030ef          	jal	8000598c <release>
    8000199c:	bf6d                	j	80001956 <clockintr+0xe>

000000008000199e <devintr>:
// returns 2 if timer interrupt,
// 1 if other device,
// 0 if not recognized.
int
devintr()
{
    8000199e:	1101                	addi	sp,sp,-32
    800019a0:	ec06                	sd	ra,24(sp)
    800019a2:	e822                	sd	s0,16(sp)
    800019a4:	1000                	addi	s0,sp,32
  asm volatile("csrr %0, scause" : "=r" (x) );
    800019a6:	14202773          	csrr	a4,scause
  uint64 scause = r_scause();

  if(scause == 0x8000000000000009L){
    800019aa:	57fd                	li	a5,-1
    800019ac:	17fe                	slli	a5,a5,0x3f
    800019ae:	07a5                	addi	a5,a5,9
    800019b0:	00f70c63          	beq	a4,a5,800019c8 <devintr+0x2a>
    // now allowed to interrupt again.
    if(irq)
      plic_complete(irq);

    return 1;
  } else if(scause == 0x8000000000000005L){
    800019b4:	57fd                	li	a5,-1
    800019b6:	17fe                	slli	a5,a5,0x3f
    800019b8:	0795                	addi	a5,a5,5
    // timer interrupt.
    clockintr();
    return 2;
  } else {
    return 0;
    800019ba:	4501                	li	a0,0
  } else if(scause == 0x8000000000000005L){
    800019bc:	04f70863          	beq	a4,a5,80001a0c <devintr+0x6e>
  }
}
    800019c0:	60e2                	ld	ra,24(sp)
    800019c2:	6442                	ld	s0,16(sp)
    800019c4:	6105                	addi	sp,sp,32
    800019c6:	8082                	ret
    800019c8:	e426                	sd	s1,8(sp)
    int irq = plic_claim();
    800019ca:	723020ef          	jal	800048ec <plic_claim>
    800019ce:	872a                	mv	a4,a0
    800019d0:	84aa                	mv	s1,a0
    if(irq == UART0_IRQ){
    800019d2:	47a9                	li	a5,10
    800019d4:	00f50963          	beq	a0,a5,800019e6 <devintr+0x48>
    } else if(irq == VIRTIO0_IRQ){
    800019d8:	4785                	li	a5,1
    800019da:	00f50963          	beq	a0,a5,800019ec <devintr+0x4e>
    return 1;
    800019de:	4505                	li	a0,1
    } else if(irq){
    800019e0:	eb09                	bnez	a4,800019f2 <devintr+0x54>
    800019e2:	64a2                	ld	s1,8(sp)
    800019e4:	bff1                	j	800019c0 <devintr+0x22>
      uartintr();
    800019e6:	621030ef          	jal	80005806 <uartintr>
    if(irq)
    800019ea:	a819                	j	80001a00 <devintr+0x62>
      virtio_disk_intr();
    800019ec:	396030ef          	jal	80004d82 <virtio_disk_intr>
    if(irq)
    800019f0:	a801                	j	80001a00 <devintr+0x62>
      printf("unexpected interrupt irq=%d\n", irq);
    800019f2:	85ba                	mv	a1,a4
    800019f4:	00005517          	auipc	a0,0x5
    800019f8:	7fc50513          	addi	a0,a0,2044 # 800071f0 <etext+0x1f0>
    800019fc:	111030ef          	jal	8000530c <printf>
      plic_complete(irq);
    80001a00:	8526                	mv	a0,s1
    80001a02:	70b020ef          	jal	8000490c <plic_complete>
    return 1;
    80001a06:	4505                	li	a0,1
    80001a08:	64a2                	ld	s1,8(sp)
    80001a0a:	bf5d                	j	800019c0 <devintr+0x22>
    clockintr();
    80001a0c:	f3dff0ef          	jal	80001948 <clockintr>
    return 2;
    80001a10:	4509                	li	a0,2
    80001a12:	b77d                	j	800019c0 <devintr+0x22>

0000000080001a14 <usertrap>:
{
    80001a14:	1101                	addi	sp,sp,-32
    80001a16:	ec06                	sd	ra,24(sp)
    80001a18:	e822                	sd	s0,16(sp)
    80001a1a:	e426                	sd	s1,8(sp)
    80001a1c:	e04a                	sd	s2,0(sp)
    80001a1e:	1000                	addi	s0,sp,32
  asm volatile("csrr %0, sstatus" : "=r" (x) );
    80001a20:	100027f3          	csrr	a5,sstatus
  if((r_sstatus() & SSTATUS_SPP) != 0)
    80001a24:	1007f793          	andi	a5,a5,256
    80001a28:	eba5                	bnez	a5,80001a98 <usertrap+0x84>
  asm volatile("csrw stvec, %0" : : "r" (x));
    80001a2a:	00003797          	auipc	a5,0x3
    80001a2e:	e1678793          	addi	a5,a5,-490 # 80004840 <kernelvec>
    80001a32:	10579073          	csrw	stvec,a5
  struct proc *p = myproc();
    80001a36:	b5eff0ef          	jal	80000d94 <myproc>
    80001a3a:	84aa                	mv	s1,a0
  p->trapframe->epc = r_sepc();
    80001a3c:	6d3c                	ld	a5,88(a0)
  asm volatile("csrr %0, sepc" : "=r" (x) );
    80001a3e:	14102773          	csrr	a4,sepc
    80001a42:	ef98                	sd	a4,24(a5)
  asm volatile("csrr %0, scause" : "=r" (x) );
    80001a44:	14202773          	csrr	a4,scause
  if(r_scause() == 8){
    80001a48:	47a1                	li	a5,8
    80001a4a:	04f70d63          	beq	a4,a5,80001aa4 <usertrap+0x90>
  } else if((which_dev = devintr()) != 0){
    80001a4e:	f51ff0ef          	jal	8000199e <devintr>
    80001a52:	892a                	mv	s2,a0
    80001a54:	e945                	bnez	a0,80001b04 <usertrap+0xf0>
    80001a56:	14202773          	csrr	a4,scause
  } else if((r_scause() == 15 || r_scause() == 13) &&
    80001a5a:	47bd                	li	a5,15
    80001a5c:	08f70863          	beq	a4,a5,80001aec <usertrap+0xd8>
    80001a60:	14202773          	csrr	a4,scause
    80001a64:	47b5                	li	a5,13
    80001a66:	08f70363          	beq	a4,a5,80001aec <usertrap+0xd8>
    80001a6a:	142025f3          	csrr	a1,scause
    printf("usertrap(): unexpected scause 0x%lx pid=%d\n", r_scause(), p->pid);
    80001a6e:	5890                	lw	a2,48(s1)
    80001a70:	00005517          	auipc	a0,0x5
    80001a74:	7c050513          	addi	a0,a0,1984 # 80007230 <etext+0x230>
    80001a78:	095030ef          	jal	8000530c <printf>
  asm volatile("csrr %0, sepc" : "=r" (x) );
    80001a7c:	141025f3          	csrr	a1,sepc
  asm volatile("csrr %0, stval" : "=r" (x) );
    80001a80:	14302673          	csrr	a2,stval
    printf("            sepc=0x%lx stval=0x%lx\n", r_sepc(), r_stval());
    80001a84:	00005517          	auipc	a0,0x5
    80001a88:	7dc50513          	addi	a0,a0,2012 # 80007260 <etext+0x260>
    80001a8c:	081030ef          	jal	8000530c <printf>
    setkilled(p);
    80001a90:	8526                	mv	a0,s1
    80001a92:	b19ff0ef          	jal	800015aa <setkilled>
    80001a96:	a035                	j	80001ac2 <usertrap+0xae>
    panic("usertrap: not from user mode");
    80001a98:	00005517          	auipc	a0,0x5
    80001a9c:	77850513          	addi	a0,a0,1912 # 80007210 <etext+0x210>
    80001aa0:	397030ef          	jal	80005636 <panic>
    if(killed(p))
    80001aa4:	b2bff0ef          	jal	800015ce <killed>
    80001aa8:	ed15                	bnez	a0,80001ae4 <usertrap+0xd0>
    p->trapframe->epc += 4;
    80001aaa:	6cb8                	ld	a4,88(s1)
    80001aac:	6f1c                	ld	a5,24(a4)
    80001aae:	0791                	addi	a5,a5,4
    80001ab0:	ef1c                	sd	a5,24(a4)
  asm volatile("csrr %0, sstatus" : "=r" (x) );
    80001ab2:	100027f3          	csrr	a5,sstatus
  w_sstatus(r_sstatus() | SSTATUS_SIE);
    80001ab6:	0027e793          	ori	a5,a5,2
  asm volatile("csrw sstatus, %0" : : "r" (x));
    80001aba:	10079073          	csrw	sstatus,a5
    syscall();
    80001abe:	240000ef          	jal	80001cfe <syscall>
  if(killed(p))
    80001ac2:	8526                	mv	a0,s1
    80001ac4:	b0bff0ef          	jal	800015ce <killed>
    80001ac8:	e139                	bnez	a0,80001b0e <usertrap+0xfa>
  prepare_return();
    80001aca:	e05ff0ef          	jal	800018ce <prepare_return>
  uint64 satp = MAKE_SATP(p->pagetable);
    80001ace:	68a8                	ld	a0,80(s1)
    80001ad0:	8131                	srli	a0,a0,0xc
    80001ad2:	57fd                	li	a5,-1
    80001ad4:	17fe                	slli	a5,a5,0x3f
    80001ad6:	8d5d                	or	a0,a0,a5
}
    80001ad8:	60e2                	ld	ra,24(sp)
    80001ada:	6442                	ld	s0,16(sp)
    80001adc:	64a2                	ld	s1,8(sp)
    80001ade:	6902                	ld	s2,0(sp)
    80001ae0:	6105                	addi	sp,sp,32
    80001ae2:	8082                	ret
      kexit(-1);
    80001ae4:	557d                	li	a0,-1
    80001ae6:	9b9ff0ef          	jal	8000149e <kexit>
    80001aea:	b7c1                	j	80001aaa <usertrap+0x96>
  asm volatile("csrr %0, stval" : "=r" (x) );
    80001aec:	143025f3          	csrr	a1,stval
  asm volatile("csrr %0, scause" : "=r" (x) );
    80001af0:	14202673          	csrr	a2,scause
            vmfault(p->pagetable, r_stval(), (r_scause() == 13)? 1 : 0) != 0) {
    80001af4:	164d                	addi	a2,a2,-13 # ff3 <_entry-0x7ffff00d>
    80001af6:	00163613          	seqz	a2,a2
    80001afa:	68a8                	ld	a0,80(s1)
    80001afc:	f3bfe0ef          	jal	80000a36 <vmfault>
  } else if((r_scause() == 15 || r_scause() == 13) &&
    80001b00:	f169                	bnez	a0,80001ac2 <usertrap+0xae>
    80001b02:	b7a5                	j	80001a6a <usertrap+0x56>
  if(killed(p))
    80001b04:	8526                	mv	a0,s1
    80001b06:	ac9ff0ef          	jal	800015ce <killed>
    80001b0a:	c511                	beqz	a0,80001b16 <usertrap+0x102>
    80001b0c:	a011                	j	80001b10 <usertrap+0xfc>
    80001b0e:	4901                	li	s2,0
    kexit(-1);
    80001b10:	557d                	li	a0,-1
    80001b12:	98dff0ef          	jal	8000149e <kexit>
  if(which_dev == 2)
    80001b16:	4789                	li	a5,2
    80001b18:	faf919e3          	bne	s2,a5,80001aca <usertrap+0xb6>
    yield();
    80001b1c:	84bff0ef          	jal	80001366 <yield>
    80001b20:	b76d                	j	80001aca <usertrap+0xb6>

0000000080001b22 <kerneltrap>:
{
    80001b22:	7179                	addi	sp,sp,-48
    80001b24:	f406                	sd	ra,40(sp)
    80001b26:	f022                	sd	s0,32(sp)
    80001b28:	ec26                	sd	s1,24(sp)
    80001b2a:	e84a                	sd	s2,16(sp)
    80001b2c:	e44e                	sd	s3,8(sp)
    80001b2e:	1800                	addi	s0,sp,48
  asm volatile("csrr %0, sepc" : "=r" (x) );
    80001b30:	14102973          	csrr	s2,sepc
  asm volatile("csrr %0, sstatus" : "=r" (x) );
    80001b34:	100024f3          	csrr	s1,sstatus
  asm volatile("csrr %0, scause" : "=r" (x) );
    80001b38:	142027f3          	csrr	a5,scause
    80001b3c:	89be                	mv	s3,a5
  if((sstatus & SSTATUS_SPP) == 0)
    80001b3e:	1004f793          	andi	a5,s1,256
    80001b42:	c795                	beqz	a5,80001b6e <kerneltrap+0x4c>
  asm volatile("csrr %0, sstatus" : "=r" (x) );
    80001b44:	100027f3          	csrr	a5,sstatus
  return (x & SSTATUS_SIE) != 0;
    80001b48:	8b89                	andi	a5,a5,2
  if(intr_get() != 0)
    80001b4a:	eb85                	bnez	a5,80001b7a <kerneltrap+0x58>
  if((which_dev = devintr()) == 0){
    80001b4c:	e53ff0ef          	jal	8000199e <devintr>
    80001b50:	c91d                	beqz	a0,80001b86 <kerneltrap+0x64>
  if(which_dev == 2 && myproc() != 0)
    80001b52:	4789                	li	a5,2
    80001b54:	04f50a63          	beq	a0,a5,80001ba8 <kerneltrap+0x86>
  asm volatile("csrw sepc, %0" : : "r" (x));
    80001b58:	14191073          	csrw	sepc,s2
  asm volatile("csrw sstatus, %0" : : "r" (x));
    80001b5c:	10049073          	csrw	sstatus,s1
}
    80001b60:	70a2                	ld	ra,40(sp)
    80001b62:	7402                	ld	s0,32(sp)
    80001b64:	64e2                	ld	s1,24(sp)
    80001b66:	6942                	ld	s2,16(sp)
    80001b68:	69a2                	ld	s3,8(sp)
    80001b6a:	6145                	addi	sp,sp,48
    80001b6c:	8082                	ret
    panic("kerneltrap: not from supervisor mode");
    80001b6e:	00005517          	auipc	a0,0x5
    80001b72:	71a50513          	addi	a0,a0,1818 # 80007288 <etext+0x288>
    80001b76:	2c1030ef          	jal	80005636 <panic>
    panic("kerneltrap: interrupts enabled");
    80001b7a:	00005517          	auipc	a0,0x5
    80001b7e:	73650513          	addi	a0,a0,1846 # 800072b0 <etext+0x2b0>
    80001b82:	2b5030ef          	jal	80005636 <panic>
  asm volatile("csrr %0, sepc" : "=r" (x) );
    80001b86:	14102673          	csrr	a2,sepc
  asm volatile("csrr %0, stval" : "=r" (x) );
    80001b8a:	143026f3          	csrr	a3,stval
    printf("scause=0x%lx sepc=0x%lx stval=0x%lx\n", scause, r_sepc(), r_stval());
    80001b8e:	85ce                	mv	a1,s3
    80001b90:	00005517          	auipc	a0,0x5
    80001b94:	74050513          	addi	a0,a0,1856 # 800072d0 <etext+0x2d0>
    80001b98:	774030ef          	jal	8000530c <printf>
    panic("kerneltrap");
    80001b9c:	00005517          	auipc	a0,0x5
    80001ba0:	75c50513          	addi	a0,a0,1884 # 800072f8 <etext+0x2f8>
    80001ba4:	293030ef          	jal	80005636 <panic>
  if(which_dev == 2 && myproc() != 0)
    80001ba8:	9ecff0ef          	jal	80000d94 <myproc>
    80001bac:	d555                	beqz	a0,80001b58 <kerneltrap+0x36>
    yield();
    80001bae:	fb8ff0ef          	jal	80001366 <yield>
    80001bb2:	b75d                	j	80001b58 <kerneltrap+0x36>

0000000080001bb4 <argraw>:
  return strlen(buf);
}

static uint64
argraw(int n)
{
    80001bb4:	1101                	addi	sp,sp,-32
    80001bb6:	ec06                	sd	ra,24(sp)
    80001bb8:	e822                	sd	s0,16(sp)
    80001bba:	e426                	sd	s1,8(sp)
    80001bbc:	1000                	addi	s0,sp,32
    80001bbe:	84aa                	mv	s1,a0
  struct proc *p = myproc();
    80001bc0:	9d4ff0ef          	jal	80000d94 <myproc>
  switch (n) {
    80001bc4:	4795                	li	a5,5
    80001bc6:	0497e163          	bltu	a5,s1,80001c08 <argraw+0x54>
    80001bca:	048a                	slli	s1,s1,0x2
    80001bcc:	00006717          	auipc	a4,0x6
    80001bd0:	b7470713          	addi	a4,a4,-1164 # 80007740 <states.0+0x30>
    80001bd4:	94ba                	add	s1,s1,a4
    80001bd6:	409c                	lw	a5,0(s1)
    80001bd8:	97ba                	add	a5,a5,a4
    80001bda:	8782                	jr	a5
  case 0:
    return p->trapframe->a0;
    80001bdc:	6d3c                	ld	a5,88(a0)
    80001bde:	7ba8                	ld	a0,112(a5)
  case 5:
    return p->trapframe->a5;
  }
  panic("argraw");
  return -1;
}
    80001be0:	60e2                	ld	ra,24(sp)
    80001be2:	6442                	ld	s0,16(sp)
    80001be4:	64a2                	ld	s1,8(sp)
    80001be6:	6105                	addi	sp,sp,32
    80001be8:	8082                	ret
    return p->trapframe->a1;
    80001bea:	6d3c                	ld	a5,88(a0)
    80001bec:	7fa8                	ld	a0,120(a5)
    80001bee:	bfcd                	j	80001be0 <argraw+0x2c>
    return p->trapframe->a2;
    80001bf0:	6d3c                	ld	a5,88(a0)
    80001bf2:	63c8                	ld	a0,128(a5)
    80001bf4:	b7f5                	j	80001be0 <argraw+0x2c>
    return p->trapframe->a3;
    80001bf6:	6d3c                	ld	a5,88(a0)
    80001bf8:	67c8                	ld	a0,136(a5)
    80001bfa:	b7dd                	j	80001be0 <argraw+0x2c>
    return p->trapframe->a4;
    80001bfc:	6d3c                	ld	a5,88(a0)
    80001bfe:	6bc8                	ld	a0,144(a5)
    80001c00:	b7c5                	j	80001be0 <argraw+0x2c>
    return p->trapframe->a5;
    80001c02:	6d3c                	ld	a5,88(a0)
    80001c04:	6fc8                	ld	a0,152(a5)
    80001c06:	bfe9                	j	80001be0 <argraw+0x2c>
  panic("argraw");
    80001c08:	00005517          	auipc	a0,0x5
    80001c0c:	70050513          	addi	a0,a0,1792 # 80007308 <etext+0x308>
    80001c10:	227030ef          	jal	80005636 <panic>

0000000080001c14 <fetchaddr>:
{
    80001c14:	1101                	addi	sp,sp,-32
    80001c16:	ec06                	sd	ra,24(sp)
    80001c18:	e822                	sd	s0,16(sp)
    80001c1a:	e426                	sd	s1,8(sp)
    80001c1c:	e04a                	sd	s2,0(sp)
    80001c1e:	1000                	addi	s0,sp,32
    80001c20:	84aa                	mv	s1,a0
    80001c22:	892e                	mv	s2,a1
  struct proc *p = myproc();
    80001c24:	970ff0ef          	jal	80000d94 <myproc>
  if(addr >= p->sz || addr+sizeof(uint64) > p->sz) // both tests needed, in case of overflow
    80001c28:	653c                	ld	a5,72(a0)
    80001c2a:	02f4f663          	bgeu	s1,a5,80001c56 <fetchaddr+0x42>
    80001c2e:	00848713          	addi	a4,s1,8
    80001c32:	02e7e463          	bltu	a5,a4,80001c5a <fetchaddr+0x46>
  if(copyin(p->pagetable, (char *)ip, addr, sizeof(*ip)) != 0)
    80001c36:	46a1                	li	a3,8
    80001c38:	8626                	mv	a2,s1
    80001c3a:	85ca                	mv	a1,s2
    80001c3c:	6928                	ld	a0,80(a0)
    80001c3e:	f3bfe0ef          	jal	80000b78 <copyin>
    80001c42:	00a03533          	snez	a0,a0
    80001c46:	40a0053b          	negw	a0,a0
}
    80001c4a:	60e2                	ld	ra,24(sp)
    80001c4c:	6442                	ld	s0,16(sp)
    80001c4e:	64a2                	ld	s1,8(sp)
    80001c50:	6902                	ld	s2,0(sp)
    80001c52:	6105                	addi	sp,sp,32
    80001c54:	8082                	ret
    return -1;
    80001c56:	557d                	li	a0,-1
    80001c58:	bfcd                	j	80001c4a <fetchaddr+0x36>
    80001c5a:	557d                	li	a0,-1
    80001c5c:	b7fd                	j	80001c4a <fetchaddr+0x36>

0000000080001c5e <fetchstr>:
{
    80001c5e:	7179                	addi	sp,sp,-48
    80001c60:	f406                	sd	ra,40(sp)
    80001c62:	f022                	sd	s0,32(sp)
    80001c64:	ec26                	sd	s1,24(sp)
    80001c66:	e84a                	sd	s2,16(sp)
    80001c68:	e44e                	sd	s3,8(sp)
    80001c6a:	1800                	addi	s0,sp,48
    80001c6c:	89aa                	mv	s3,a0
    80001c6e:	84ae                	mv	s1,a1
    80001c70:	8932                	mv	s2,a2
  struct proc *p = myproc();
    80001c72:	922ff0ef          	jal	80000d94 <myproc>
  if(copyinstr(p->pagetable, buf, addr, max) < 0)
    80001c76:	86ca                	mv	a3,s2
    80001c78:	864e                	mv	a2,s3
    80001c7a:	85a6                	mv	a1,s1
    80001c7c:	6928                	ld	a0,80(a0)
    80001c7e:	ce1fe0ef          	jal	8000095e <copyinstr>
    80001c82:	00054c63          	bltz	a0,80001c9a <fetchstr+0x3c>
  return strlen(buf);
    80001c86:	8526                	mv	a0,s1
    80001c88:	e60fe0ef          	jal	800002e8 <strlen>
}
    80001c8c:	70a2                	ld	ra,40(sp)
    80001c8e:	7402                	ld	s0,32(sp)
    80001c90:	64e2                	ld	s1,24(sp)
    80001c92:	6942                	ld	s2,16(sp)
    80001c94:	69a2                	ld	s3,8(sp)
    80001c96:	6145                	addi	sp,sp,48
    80001c98:	8082                	ret
    return -1;
    80001c9a:	557d                	li	a0,-1
    80001c9c:	bfc5                	j	80001c8c <fetchstr+0x2e>

0000000080001c9e <argint>:

// Fetch the nth 32-bit system call argument.
void
argint(int n, int *ip)
{
    80001c9e:	1101                	addi	sp,sp,-32
    80001ca0:	ec06                	sd	ra,24(sp)
    80001ca2:	e822                	sd	s0,16(sp)
    80001ca4:	e426                	sd	s1,8(sp)
    80001ca6:	1000                	addi	s0,sp,32
    80001ca8:	84ae                	mv	s1,a1
  *ip = argraw(n);
    80001caa:	f0bff0ef          	jal	80001bb4 <argraw>
    80001cae:	c088                	sw	a0,0(s1)
}
    80001cb0:	60e2                	ld	ra,24(sp)
    80001cb2:	6442                	ld	s0,16(sp)
    80001cb4:	64a2                	ld	s1,8(sp)
    80001cb6:	6105                	addi	sp,sp,32
    80001cb8:	8082                	ret

0000000080001cba <argaddr>:
// Retrieve an argument as a pointer.
// Doesn't check for legality, since
// copyin/copyout will do that.
void
argaddr(int n, uint64 *ip)
{
    80001cba:	1101                	addi	sp,sp,-32
    80001cbc:	ec06                	sd	ra,24(sp)
    80001cbe:	e822                	sd	s0,16(sp)
    80001cc0:	e426                	sd	s1,8(sp)
    80001cc2:	1000                	addi	s0,sp,32
    80001cc4:	84ae                	mv	s1,a1
  *ip = argraw(n);
    80001cc6:	eefff0ef          	jal	80001bb4 <argraw>
    80001cca:	e088                	sd	a0,0(s1)
}
    80001ccc:	60e2                	ld	ra,24(sp)
    80001cce:	6442                	ld	s0,16(sp)
    80001cd0:	64a2                	ld	s1,8(sp)
    80001cd2:	6105                	addi	sp,sp,32
    80001cd4:	8082                	ret

0000000080001cd6 <argstr>:
// Fetch the nth word-sized system call argument as a null-terminated string.
// Copies into buf, at most max.
// Returns string length if OK (including nul), -1 if error.
int
argstr(int n, char *buf, int max)
{
    80001cd6:	1101                	addi	sp,sp,-32
    80001cd8:	ec06                	sd	ra,24(sp)
    80001cda:	e822                	sd	s0,16(sp)
    80001cdc:	e426                	sd	s1,8(sp)
    80001cde:	e04a                	sd	s2,0(sp)
    80001ce0:	1000                	addi	s0,sp,32
    80001ce2:	892e                	mv	s2,a1
    80001ce4:	84b2                	mv	s1,a2
  *ip = argraw(n);
    80001ce6:	ecfff0ef          	jal	80001bb4 <argraw>
  uint64 addr;
  argaddr(n, &addr);
  return fetchstr(addr, buf, max);
    80001cea:	8626                	mv	a2,s1
    80001cec:	85ca                	mv	a1,s2
    80001cee:	f71ff0ef          	jal	80001c5e <fetchstr>
}
    80001cf2:	60e2                	ld	ra,24(sp)
    80001cf4:	6442                	ld	s0,16(sp)
    80001cf6:	64a2                	ld	s1,8(sp)
    80001cf8:	6902                	ld	s2,0(sp)
    80001cfa:	6105                	addi	sp,sp,32
    80001cfc:	8082                	ret

0000000080001cfe <syscall>:
[SYS_close]   sys_close,
};

void
syscall(void)
{
    80001cfe:	1101                	addi	sp,sp,-32
    80001d00:	ec06                	sd	ra,24(sp)
    80001d02:	e822                	sd	s0,16(sp)
    80001d04:	e426                	sd	s1,8(sp)
    80001d06:	e04a                	sd	s2,0(sp)
    80001d08:	1000                	addi	s0,sp,32
  int num;
  struct proc *p = myproc();
    80001d0a:	88aff0ef          	jal	80000d94 <myproc>
    80001d0e:	84aa                	mv	s1,a0

  num = p->trapframe->a7;
    80001d10:	05853903          	ld	s2,88(a0)
    80001d14:	0a893783          	ld	a5,168(s2)
    80001d18:	0007869b          	sext.w	a3,a5
  if(num > 0 && num < NELEM(syscalls) && syscalls[num]) {
    80001d1c:	37fd                	addiw	a5,a5,-1
    80001d1e:	4751                	li	a4,20
    80001d20:	00f76f63          	bltu	a4,a5,80001d3e <syscall+0x40>
    80001d24:	00369713          	slli	a4,a3,0x3
    80001d28:	00006797          	auipc	a5,0x6
    80001d2c:	a3078793          	addi	a5,a5,-1488 # 80007758 <syscalls>
    80001d30:	97ba                	add	a5,a5,a4
    80001d32:	639c                	ld	a5,0(a5)
    80001d34:	c789                	beqz	a5,80001d3e <syscall+0x40>
    // Use num to lookup the system call function for num, call it,
    // and store its return value in p->trapframe->a0
    p->trapframe->a0 = syscalls[num]();
    80001d36:	9782                	jalr	a5
    80001d38:	06a93823          	sd	a0,112(s2)
    80001d3c:	a829                	j	80001d56 <syscall+0x58>
  } else {
    printf("%d %s: unknown sys call %d\n",
    80001d3e:	15848613          	addi	a2,s1,344
    80001d42:	588c                	lw	a1,48(s1)
    80001d44:	00005517          	auipc	a0,0x5
    80001d48:	5cc50513          	addi	a0,a0,1484 # 80007310 <etext+0x310>
    80001d4c:	5c0030ef          	jal	8000530c <printf>
            p->pid, p->name, num);
    p->trapframe->a0 = -1;
    80001d50:	6cbc                	ld	a5,88(s1)
    80001d52:	577d                	li	a4,-1
    80001d54:	fbb8                	sd	a4,112(a5)
  }
}
    80001d56:	60e2                	ld	ra,24(sp)
    80001d58:	6442                	ld	s0,16(sp)
    80001d5a:	64a2                	ld	s1,8(sp)
    80001d5c:	6902                	ld	s2,0(sp)
    80001d5e:	6105                	addi	sp,sp,32
    80001d60:	8082                	ret

0000000080001d62 <sys_exit>:
#include "proc.h"
#include "vm.h"

uint64
sys_exit(void)
{
    80001d62:	1101                	addi	sp,sp,-32
    80001d64:	ec06                	sd	ra,24(sp)
    80001d66:	e822                	sd	s0,16(sp)
    80001d68:	1000                	addi	s0,sp,32
  int n;
  argint(0, &n);
    80001d6a:	fec40593          	addi	a1,s0,-20
    80001d6e:	4501                	li	a0,0
    80001d70:	f2fff0ef          	jal	80001c9e <argint>
  kexit(n);
    80001d74:	fec42503          	lw	a0,-20(s0)
    80001d78:	f26ff0ef          	jal	8000149e <kexit>
  return 0;  // not reached
}
    80001d7c:	4501                	li	a0,0
    80001d7e:	60e2                	ld	ra,24(sp)
    80001d80:	6442                	ld	s0,16(sp)
    80001d82:	6105                	addi	sp,sp,32
    80001d84:	8082                	ret

0000000080001d86 <sys_getpid>:

uint64
sys_getpid(void)
{
    80001d86:	1141                	addi	sp,sp,-16
    80001d88:	e406                	sd	ra,8(sp)
    80001d8a:	e022                	sd	s0,0(sp)
    80001d8c:	0800                	addi	s0,sp,16
  return myproc()->pid;
    80001d8e:	806ff0ef          	jal	80000d94 <myproc>
}
    80001d92:	5908                	lw	a0,48(a0)
    80001d94:	60a2                	ld	ra,8(sp)
    80001d96:	6402                	ld	s0,0(sp)
    80001d98:	0141                	addi	sp,sp,16
    80001d9a:	8082                	ret

0000000080001d9c <sys_fork>:

uint64
sys_fork(void)
{
    80001d9c:	1141                	addi	sp,sp,-16
    80001d9e:	e406                	sd	ra,8(sp)
    80001da0:	e022                	sd	s0,0(sp)
    80001da2:	0800                	addi	s0,sp,16
  return kfork();
    80001da4:	b46ff0ef          	jal	800010ea <kfork>
}
    80001da8:	60a2                	ld	ra,8(sp)
    80001daa:	6402                	ld	s0,0(sp)
    80001dac:	0141                	addi	sp,sp,16
    80001dae:	8082                	ret

0000000080001db0 <sys_wait>:

uint64
sys_wait(void)
{
    80001db0:	1101                	addi	sp,sp,-32
    80001db2:	ec06                	sd	ra,24(sp)
    80001db4:	e822                	sd	s0,16(sp)
    80001db6:	1000                	addi	s0,sp,32
  uint64 p;
  argaddr(0, &p);
    80001db8:	fe840593          	addi	a1,s0,-24
    80001dbc:	4501                	li	a0,0
    80001dbe:	efdff0ef          	jal	80001cba <argaddr>
  return kwait(p);
    80001dc2:	fe843503          	ld	a0,-24(s0)
    80001dc6:	833ff0ef          	jal	800015f8 <kwait>
}
    80001dca:	60e2                	ld	ra,24(sp)
    80001dcc:	6442                	ld	s0,16(sp)
    80001dce:	6105                	addi	sp,sp,32
    80001dd0:	8082                	ret

0000000080001dd2 <sys_sbrk>:

uint64
sys_sbrk(void)
{
    80001dd2:	7179                	addi	sp,sp,-48
    80001dd4:	f406                	sd	ra,40(sp)
    80001dd6:	f022                	sd	s0,32(sp)
    80001dd8:	ec26                	sd	s1,24(sp)
    80001dda:	1800                	addi	s0,sp,48
  uint64 addr;
  int t;
  int n;

  argint(0, &n);
    80001ddc:	fd840593          	addi	a1,s0,-40
    80001de0:	4501                	li	a0,0
    80001de2:	ebdff0ef          	jal	80001c9e <argint>
  argint(1, &t);
    80001de6:	fdc40593          	addi	a1,s0,-36
    80001dea:	4505                	li	a0,1
    80001dec:	eb3ff0ef          	jal	80001c9e <argint>
  addr = myproc()->sz;
    80001df0:	fa5fe0ef          	jal	80000d94 <myproc>
    80001df4:	6524                	ld	s1,72(a0)

  if(t == SBRK_EAGER || n < 0) {
    80001df6:	fdc42703          	lw	a4,-36(s0)
    80001dfa:	4785                	li	a5,1
    80001dfc:	02f70163          	beq	a4,a5,80001e1e <sys_sbrk+0x4c>
    80001e00:	fd842783          	lw	a5,-40(s0)
    80001e04:	0007cd63          	bltz	a5,80001e1e <sys_sbrk+0x4c>
    }
  } else {
    // Lazily allocate memory for this process: increase its memory
    // size but don't allocate memory. If the processes uses the
    // memory, vmfault() will allocate it.
    if(addr + n < addr)
    80001e08:	97a6                	add	a5,a5,s1
    80001e0a:	0297e863          	bltu	a5,s1,80001e3a <sys_sbrk+0x68>
      return -1;
    myproc()->sz += n;
    80001e0e:	f87fe0ef          	jal	80000d94 <myproc>
    80001e12:	fd842703          	lw	a4,-40(s0)
    80001e16:	653c                	ld	a5,72(a0)
    80001e18:	97ba                	add	a5,a5,a4
    80001e1a:	e53c                	sd	a5,72(a0)
    80001e1c:	a039                	j	80001e2a <sys_sbrk+0x58>
    if(growproc(n) < 0) {
    80001e1e:	fd842503          	lw	a0,-40(s0)
    80001e22:	a78ff0ef          	jal	8000109a <growproc>
    80001e26:	00054863          	bltz	a0,80001e36 <sys_sbrk+0x64>
  }
  return addr;
}
    80001e2a:	8526                	mv	a0,s1
    80001e2c:	70a2                	ld	ra,40(sp)
    80001e2e:	7402                	ld	s0,32(sp)
    80001e30:	64e2                	ld	s1,24(sp)
    80001e32:	6145                	addi	sp,sp,48
    80001e34:	8082                	ret
      return -1;
    80001e36:	54fd                	li	s1,-1
    80001e38:	bfcd                	j	80001e2a <sys_sbrk+0x58>
      return -1;
    80001e3a:	54fd                	li	s1,-1
    80001e3c:	b7fd                	j	80001e2a <sys_sbrk+0x58>

0000000080001e3e <sys_pause>:

uint64
sys_pause(void)
{
    80001e3e:	7139                	addi	sp,sp,-64
    80001e40:	fc06                	sd	ra,56(sp)
    80001e42:	f822                	sd	s0,48(sp)
    80001e44:	0080                	addi	s0,sp,64
  int n;
  uint ticks0;

  argint(0, &n);
    80001e46:	fcc40593          	addi	a1,s0,-52
    80001e4a:	4501                	li	a0,0
    80001e4c:	e53ff0ef          	jal	80001c9e <argint>
  if(n < 0)
    80001e50:	fcc42783          	lw	a5,-52(s0)
    80001e54:	0607c863          	bltz	a5,80001ec4 <sys_pause+0x86>
    n = 0;
  acquire(&tickslock);
    80001e58:	0000e517          	auipc	a0,0xe
    80001e5c:	21850513          	addi	a0,a0,536 # 80010070 <tickslock>
    80001e60:	299030ef          	jal	800058f8 <acquire>
  ticks0 = ticks;
  while(ticks - ticks0 < n){
    80001e64:	fcc42783          	lw	a5,-52(s0)
    80001e68:	c3b9                	beqz	a5,80001eae <sys_pause+0x70>
    80001e6a:	f426                	sd	s1,40(sp)
    80001e6c:	f04a                	sd	s2,32(sp)
    80001e6e:	ec4e                	sd	s3,24(sp)
  ticks0 = ticks;
    80001e70:	00008997          	auipc	s3,0x8
    80001e74:	3989a983          	lw	s3,920(s3) # 8000a208 <ticks>
    if(killed(myproc())){
      release(&tickslock);
      return -1;
    }
    sleep(&ticks, &tickslock);
    80001e78:	0000e917          	auipc	s2,0xe
    80001e7c:	1f890913          	addi	s2,s2,504 # 80010070 <tickslock>
    80001e80:	00008497          	auipc	s1,0x8
    80001e84:	38848493          	addi	s1,s1,904 # 8000a208 <ticks>
    if(killed(myproc())){
    80001e88:	f0dfe0ef          	jal	80000d94 <myproc>
    80001e8c:	f42ff0ef          	jal	800015ce <killed>
    80001e90:	ed0d                	bnez	a0,80001eca <sys_pause+0x8c>
    sleep(&ticks, &tickslock);
    80001e92:	85ca                	mv	a1,s2
    80001e94:	8526                	mv	a0,s1
    80001e96:	cfcff0ef          	jal	80001392 <sleep>
  while(ticks - ticks0 < n){
    80001e9a:	409c                	lw	a5,0(s1)
    80001e9c:	413787bb          	subw	a5,a5,s3
    80001ea0:	fcc42703          	lw	a4,-52(s0)
    80001ea4:	fee7e2e3          	bltu	a5,a4,80001e88 <sys_pause+0x4a>
    80001ea8:	74a2                	ld	s1,40(sp)
    80001eaa:	7902                	ld	s2,32(sp)
    80001eac:	69e2                	ld	s3,24(sp)
  }
  release(&tickslock);
    80001eae:	0000e517          	auipc	a0,0xe
    80001eb2:	1c250513          	addi	a0,a0,450 # 80010070 <tickslock>
    80001eb6:	2d7030ef          	jal	8000598c <release>
  return 0;
    80001eba:	4501                	li	a0,0
}
    80001ebc:	70e2                	ld	ra,56(sp)
    80001ebe:	7442                	ld	s0,48(sp)
    80001ec0:	6121                	addi	sp,sp,64
    80001ec2:	8082                	ret
    n = 0;
    80001ec4:	fc042623          	sw	zero,-52(s0)
    80001ec8:	bf41                	j	80001e58 <sys_pause+0x1a>
      release(&tickslock);
    80001eca:	0000e517          	auipc	a0,0xe
    80001ece:	1a650513          	addi	a0,a0,422 # 80010070 <tickslock>
    80001ed2:	2bb030ef          	jal	8000598c <release>
      return -1;
    80001ed6:	557d                	li	a0,-1
    80001ed8:	74a2                	ld	s1,40(sp)
    80001eda:	7902                	ld	s2,32(sp)
    80001edc:	69e2                	ld	s3,24(sp)
    80001ede:	bff9                	j	80001ebc <sys_pause+0x7e>

0000000080001ee0 <sys_kill>:

uint64
sys_kill(void)
{
    80001ee0:	1101                	addi	sp,sp,-32
    80001ee2:	ec06                	sd	ra,24(sp)
    80001ee4:	e822                	sd	s0,16(sp)
    80001ee6:	1000                	addi	s0,sp,32
  int pid;

  argint(0, &pid);
    80001ee8:	fec40593          	addi	a1,s0,-20
    80001eec:	4501                	li	a0,0
    80001eee:	db1ff0ef          	jal	80001c9e <argint>
  return kkill(pid);
    80001ef2:	fec42503          	lw	a0,-20(s0)
    80001ef6:	e4eff0ef          	jal	80001544 <kkill>
}
    80001efa:	60e2                	ld	ra,24(sp)
    80001efc:	6442                	ld	s0,16(sp)
    80001efe:	6105                	addi	sp,sp,32
    80001f00:	8082                	ret

0000000080001f02 <sys_uptime>:

// return how many clock tick interrupts have occurred
// since start.
uint64
sys_uptime(void)
{
    80001f02:	1101                	addi	sp,sp,-32
    80001f04:	ec06                	sd	ra,24(sp)
    80001f06:	e822                	sd	s0,16(sp)
    80001f08:	e426                	sd	s1,8(sp)
    80001f0a:	1000                	addi	s0,sp,32
  uint xticks;

  acquire(&tickslock);
    80001f0c:	0000e517          	auipc	a0,0xe
    80001f10:	16450513          	addi	a0,a0,356 # 80010070 <tickslock>
    80001f14:	1e5030ef          	jal	800058f8 <acquire>
  xticks = ticks;
    80001f18:	00008797          	auipc	a5,0x8
    80001f1c:	2f07a783          	lw	a5,752(a5) # 8000a208 <ticks>
    80001f20:	84be                	mv	s1,a5
  release(&tickslock);
    80001f22:	0000e517          	auipc	a0,0xe
    80001f26:	14e50513          	addi	a0,a0,334 # 80010070 <tickslock>
    80001f2a:	263030ef          	jal	8000598c <release>
  return xticks;
}
    80001f2e:	02049513          	slli	a0,s1,0x20
    80001f32:	9101                	srli	a0,a0,0x20
    80001f34:	60e2                	ld	ra,24(sp)
    80001f36:	6442                	ld	s0,16(sp)
    80001f38:	64a2                	ld	s1,8(sp)
    80001f3a:	6105                	addi	sp,sp,32
    80001f3c:	8082                	ret

0000000080001f3e <binit>:
  struct buf head;
} bcache;

void
binit(void)
{
    80001f3e:	7179                	addi	sp,sp,-48
    80001f40:	f406                	sd	ra,40(sp)
    80001f42:	f022                	sd	s0,32(sp)
    80001f44:	ec26                	sd	s1,24(sp)
    80001f46:	e84a                	sd	s2,16(sp)
    80001f48:	e44e                	sd	s3,8(sp)
    80001f4a:	e052                	sd	s4,0(sp)
    80001f4c:	1800                	addi	s0,sp,48
  struct buf *b;

  initlock(&bcache.lock, "bcache");
    80001f4e:	00005597          	auipc	a1,0x5
    80001f52:	3e258593          	addi	a1,a1,994 # 80007330 <etext+0x330>
    80001f56:	0000e517          	auipc	a0,0xe
    80001f5a:	13250513          	addi	a0,a0,306 # 80010088 <bcache>
    80001f5e:	111030ef          	jal	8000586e <initlock>

  // Create linked list of buffers
  bcache.head.prev = &bcache.head;
    80001f62:	00016797          	auipc	a5,0x16
    80001f66:	12678793          	addi	a5,a5,294 # 80018088 <bcache+0x8000>
    80001f6a:	00016717          	auipc	a4,0x16
    80001f6e:	38670713          	addi	a4,a4,902 # 800182f0 <bcache+0x8268>
    80001f72:	2ae7b823          	sd	a4,688(a5)
  bcache.head.next = &bcache.head;
    80001f76:	2ae7bc23          	sd	a4,696(a5)
  for(b = bcache.buf; b < bcache.buf+NBUF; b++){
    80001f7a:	0000e497          	auipc	s1,0xe
    80001f7e:	12648493          	addi	s1,s1,294 # 800100a0 <bcache+0x18>
    b->next = bcache.head.next;
    80001f82:	893e                	mv	s2,a5
    b->prev = &bcache.head;
    80001f84:	89ba                	mv	s3,a4
    initsleeplock(&b->lock, "buffer");
    80001f86:	00005a17          	auipc	s4,0x5
    80001f8a:	3b2a0a13          	addi	s4,s4,946 # 80007338 <etext+0x338>
    b->next = bcache.head.next;
    80001f8e:	2b893783          	ld	a5,696(s2)
    80001f92:	e8bc                	sd	a5,80(s1)
    b->prev = &bcache.head;
    80001f94:	0534b423          	sd	s3,72(s1)
    initsleeplock(&b->lock, "buffer");
    80001f98:	85d2                	mv	a1,s4
    80001f9a:	01048513          	addi	a0,s1,16
    80001f9e:	328010ef          	jal	800032c6 <initsleeplock>
    bcache.head.next->prev = b;
    80001fa2:	2b893783          	ld	a5,696(s2)
    80001fa6:	e7a4                	sd	s1,72(a5)
    bcache.head.next = b;
    80001fa8:	2a993c23          	sd	s1,696(s2)
  for(b = bcache.buf; b < bcache.buf+NBUF; b++){
    80001fac:	45848493          	addi	s1,s1,1112
    80001fb0:	fd349fe3          	bne	s1,s3,80001f8e <binit+0x50>
  }
}
    80001fb4:	70a2                	ld	ra,40(sp)
    80001fb6:	7402                	ld	s0,32(sp)
    80001fb8:	64e2                	ld	s1,24(sp)
    80001fba:	6942                	ld	s2,16(sp)
    80001fbc:	69a2                	ld	s3,8(sp)
    80001fbe:	6a02                	ld	s4,0(sp)
    80001fc0:	6145                	addi	sp,sp,48
    80001fc2:	8082                	ret

0000000080001fc4 <bread>:
}

// Return a locked buf with the contents of the indicated block.
struct buf*
bread(uint dev, uint blockno)
{
    80001fc4:	7179                	addi	sp,sp,-48
    80001fc6:	f406                	sd	ra,40(sp)
    80001fc8:	f022                	sd	s0,32(sp)
    80001fca:	ec26                	sd	s1,24(sp)
    80001fcc:	e84a                	sd	s2,16(sp)
    80001fce:	e44e                	sd	s3,8(sp)
    80001fd0:	1800                	addi	s0,sp,48
    80001fd2:	892a                	mv	s2,a0
    80001fd4:	89ae                	mv	s3,a1
  acquire(&bcache.lock);
    80001fd6:	0000e517          	auipc	a0,0xe
    80001fda:	0b250513          	addi	a0,a0,178 # 80010088 <bcache>
    80001fde:	11b030ef          	jal	800058f8 <acquire>
  for(b = bcache.head.next; b != &bcache.head; b = b->next){
    80001fe2:	00016497          	auipc	s1,0x16
    80001fe6:	35e4b483          	ld	s1,862(s1) # 80018340 <bcache+0x82b8>
    80001fea:	00016797          	auipc	a5,0x16
    80001fee:	30678793          	addi	a5,a5,774 # 800182f0 <bcache+0x8268>
    80001ff2:	02f48b63          	beq	s1,a5,80002028 <bread+0x64>
    80001ff6:	873e                	mv	a4,a5
    80001ff8:	a021                	j	80002000 <bread+0x3c>
    80001ffa:	68a4                	ld	s1,80(s1)
    80001ffc:	02e48663          	beq	s1,a4,80002028 <bread+0x64>
    if(b->dev == dev && b->blockno == blockno){
    80002000:	449c                	lw	a5,8(s1)
    80002002:	ff279ce3          	bne	a5,s2,80001ffa <bread+0x36>
    80002006:	44dc                	lw	a5,12(s1)
    80002008:	ff3799e3          	bne	a5,s3,80001ffa <bread+0x36>
      b->refcnt++;
    8000200c:	40bc                	lw	a5,64(s1)
    8000200e:	2785                	addiw	a5,a5,1
    80002010:	c0bc                	sw	a5,64(s1)
      release(&bcache.lock);
    80002012:	0000e517          	auipc	a0,0xe
    80002016:	07650513          	addi	a0,a0,118 # 80010088 <bcache>
    8000201a:	173030ef          	jal	8000598c <release>
      acquiresleep(&b->lock);
    8000201e:	01048513          	addi	a0,s1,16
    80002022:	2da010ef          	jal	800032fc <acquiresleep>
      return b;
    80002026:	a889                	j	80002078 <bread+0xb4>
  for(b = bcache.head.prev; b != &bcache.head; b = b->prev){
    80002028:	00016497          	auipc	s1,0x16
    8000202c:	3104b483          	ld	s1,784(s1) # 80018338 <bcache+0x82b0>
    80002030:	00016797          	auipc	a5,0x16
    80002034:	2c078793          	addi	a5,a5,704 # 800182f0 <bcache+0x8268>
    80002038:	00f48863          	beq	s1,a5,80002048 <bread+0x84>
    8000203c:	873e                	mv	a4,a5
    if(b->refcnt == 0) {
    8000203e:	40bc                	lw	a5,64(s1)
    80002040:	cb91                	beqz	a5,80002054 <bread+0x90>
  for(b = bcache.head.prev; b != &bcache.head; b = b->prev){
    80002042:	64a4                	ld	s1,72(s1)
    80002044:	fee49de3          	bne	s1,a4,8000203e <bread+0x7a>
  panic("bget: no buffers");
    80002048:	00005517          	auipc	a0,0x5
    8000204c:	2f850513          	addi	a0,a0,760 # 80007340 <etext+0x340>
    80002050:	5e6030ef          	jal	80005636 <panic>
      b->dev = dev;
    80002054:	0124a423          	sw	s2,8(s1)
      b->blockno = blockno;
    80002058:	0134a623          	sw	s3,12(s1)
      b->valid = 0;
    8000205c:	0004a023          	sw	zero,0(s1)
      b->refcnt = 1;
    80002060:	4785                	li	a5,1
    80002062:	c0bc                	sw	a5,64(s1)
      release(&bcache.lock);
    80002064:	0000e517          	auipc	a0,0xe
    80002068:	02450513          	addi	a0,a0,36 # 80010088 <bcache>
    8000206c:	121030ef          	jal	8000598c <release>
      acquiresleep(&b->lock);
    80002070:	01048513          	addi	a0,s1,16
    80002074:	288010ef          	jal	800032fc <acquiresleep>
  struct buf *b;

  b = bget(dev, blockno);
  if(!b->valid) {
    80002078:	409c                	lw	a5,0(s1)
    8000207a:	cb89                	beqz	a5,8000208c <bread+0xc8>
    virtio_disk_rw(b, 0);
    b->valid = 1;
  }
  return b;
}
    8000207c:	8526                	mv	a0,s1
    8000207e:	70a2                	ld	ra,40(sp)
    80002080:	7402                	ld	s0,32(sp)
    80002082:	64e2                	ld	s1,24(sp)
    80002084:	6942                	ld	s2,16(sp)
    80002086:	69a2                	ld	s3,8(sp)
    80002088:	6145                	addi	sp,sp,48
    8000208a:	8082                	ret
    virtio_disk_rw(b, 0);
    8000208c:	4581                	li	a1,0
    8000208e:	8526                	mv	a0,s1
    80002090:	2e1020ef          	jal	80004b70 <virtio_disk_rw>
    b->valid = 1;
    80002094:	4785                	li	a5,1
    80002096:	c09c                	sw	a5,0(s1)
  return b;
    80002098:	b7d5                	j	8000207c <bread+0xb8>

000000008000209a <bwrite>:

// Write b's contents to disk.  Must be locked.
void
bwrite(struct buf *b)
{
    8000209a:	1101                	addi	sp,sp,-32
    8000209c:	ec06                	sd	ra,24(sp)
    8000209e:	e822                	sd	s0,16(sp)
    800020a0:	e426                	sd	s1,8(sp)
    800020a2:	1000                	addi	s0,sp,32
    800020a4:	84aa                	mv	s1,a0
  if(!holdingsleep(&b->lock))
    800020a6:	0541                	addi	a0,a0,16
    800020a8:	2d2010ef          	jal	8000337a <holdingsleep>
    800020ac:	c911                	beqz	a0,800020c0 <bwrite+0x26>
    panic("bwrite");
  virtio_disk_rw(b, 1);
    800020ae:	4585                	li	a1,1
    800020b0:	8526                	mv	a0,s1
    800020b2:	2bf020ef          	jal	80004b70 <virtio_disk_rw>
}
    800020b6:	60e2                	ld	ra,24(sp)
    800020b8:	6442                	ld	s0,16(sp)
    800020ba:	64a2                	ld	s1,8(sp)
    800020bc:	6105                	addi	sp,sp,32
    800020be:	8082                	ret
    panic("bwrite");
    800020c0:	00005517          	auipc	a0,0x5
    800020c4:	29850513          	addi	a0,a0,664 # 80007358 <etext+0x358>
    800020c8:	56e030ef          	jal	80005636 <panic>

00000000800020cc <brelse>:

// Release a locked buffer.
// Move to the head of the most-recently-used list.
void
brelse(struct buf *b)
{
    800020cc:	1101                	addi	sp,sp,-32
    800020ce:	ec06                	sd	ra,24(sp)
    800020d0:	e822                	sd	s0,16(sp)
    800020d2:	e426                	sd	s1,8(sp)
    800020d4:	e04a                	sd	s2,0(sp)
    800020d6:	1000                	addi	s0,sp,32
    800020d8:	84aa                	mv	s1,a0
  if(!holdingsleep(&b->lock))
    800020da:	01050913          	addi	s2,a0,16
    800020de:	854a                	mv	a0,s2
    800020e0:	29a010ef          	jal	8000337a <holdingsleep>
    800020e4:	c125                	beqz	a0,80002144 <brelse+0x78>
    panic("brelse");

  releasesleep(&b->lock);
    800020e6:	854a                	mv	a0,s2
    800020e8:	25a010ef          	jal	80003342 <releasesleep>

  acquire(&bcache.lock);
    800020ec:	0000e517          	auipc	a0,0xe
    800020f0:	f9c50513          	addi	a0,a0,-100 # 80010088 <bcache>
    800020f4:	005030ef          	jal	800058f8 <acquire>
  b->refcnt--;
    800020f8:	40bc                	lw	a5,64(s1)
    800020fa:	37fd                	addiw	a5,a5,-1
    800020fc:	c0bc                	sw	a5,64(s1)
  if (b->refcnt == 0) {
    800020fe:	e79d                	bnez	a5,8000212c <brelse+0x60>
    // no one is waiting for it.
    b->next->prev = b->prev;
    80002100:	68b8                	ld	a4,80(s1)
    80002102:	64bc                	ld	a5,72(s1)
    80002104:	e73c                	sd	a5,72(a4)
    b->prev->next = b->next;
    80002106:	68b8                	ld	a4,80(s1)
    80002108:	ebb8                	sd	a4,80(a5)
    b->next = bcache.head.next;
    8000210a:	00016797          	auipc	a5,0x16
    8000210e:	f7e78793          	addi	a5,a5,-130 # 80018088 <bcache+0x8000>
    80002112:	2b87b703          	ld	a4,696(a5)
    80002116:	e8b8                	sd	a4,80(s1)
    b->prev = &bcache.head;
    80002118:	00016717          	auipc	a4,0x16
    8000211c:	1d870713          	addi	a4,a4,472 # 800182f0 <bcache+0x8268>
    80002120:	e4b8                	sd	a4,72(s1)
    bcache.head.next->prev = b;
    80002122:	2b87b703          	ld	a4,696(a5)
    80002126:	e724                	sd	s1,72(a4)
    bcache.head.next = b;
    80002128:	2a97bc23          	sd	s1,696(a5)
  }
  
  release(&bcache.lock);
    8000212c:	0000e517          	auipc	a0,0xe
    80002130:	f5c50513          	addi	a0,a0,-164 # 80010088 <bcache>
    80002134:	059030ef          	jal	8000598c <release>
}
    80002138:	60e2                	ld	ra,24(sp)
    8000213a:	6442                	ld	s0,16(sp)
    8000213c:	64a2                	ld	s1,8(sp)
    8000213e:	6902                	ld	s2,0(sp)
    80002140:	6105                	addi	sp,sp,32
    80002142:	8082                	ret
    panic("brelse");
    80002144:	00005517          	auipc	a0,0x5
    80002148:	21c50513          	addi	a0,a0,540 # 80007360 <etext+0x360>
    8000214c:	4ea030ef          	jal	80005636 <panic>

0000000080002150 <bpin>:

void
bpin(struct buf *b) {
    80002150:	1101                	addi	sp,sp,-32
    80002152:	ec06                	sd	ra,24(sp)
    80002154:	e822                	sd	s0,16(sp)
    80002156:	e426                	sd	s1,8(sp)
    80002158:	1000                	addi	s0,sp,32
    8000215a:	84aa                	mv	s1,a0
  acquire(&bcache.lock);
    8000215c:	0000e517          	auipc	a0,0xe
    80002160:	f2c50513          	addi	a0,a0,-212 # 80010088 <bcache>
    80002164:	794030ef          	jal	800058f8 <acquire>
  b->refcnt++;
    80002168:	40bc                	lw	a5,64(s1)
    8000216a:	2785                	addiw	a5,a5,1
    8000216c:	c0bc                	sw	a5,64(s1)
  release(&bcache.lock);
    8000216e:	0000e517          	auipc	a0,0xe
    80002172:	f1a50513          	addi	a0,a0,-230 # 80010088 <bcache>
    80002176:	017030ef          	jal	8000598c <release>
}
    8000217a:	60e2                	ld	ra,24(sp)
    8000217c:	6442                	ld	s0,16(sp)
    8000217e:	64a2                	ld	s1,8(sp)
    80002180:	6105                	addi	sp,sp,32
    80002182:	8082                	ret

0000000080002184 <bunpin>:

void
bunpin(struct buf *b) {
    80002184:	1101                	addi	sp,sp,-32
    80002186:	ec06                	sd	ra,24(sp)
    80002188:	e822                	sd	s0,16(sp)
    8000218a:	e426                	sd	s1,8(sp)
    8000218c:	1000                	addi	s0,sp,32
    8000218e:	84aa                	mv	s1,a0
  acquire(&bcache.lock);
    80002190:	0000e517          	auipc	a0,0xe
    80002194:	ef850513          	addi	a0,a0,-264 # 80010088 <bcache>
    80002198:	760030ef          	jal	800058f8 <acquire>
  b->refcnt--;
    8000219c:	40bc                	lw	a5,64(s1)
    8000219e:	37fd                	addiw	a5,a5,-1
    800021a0:	c0bc                	sw	a5,64(s1)
  release(&bcache.lock);
    800021a2:	0000e517          	auipc	a0,0xe
    800021a6:	ee650513          	addi	a0,a0,-282 # 80010088 <bcache>
    800021aa:	7e2030ef          	jal	8000598c <release>
}
    800021ae:	60e2                	ld	ra,24(sp)
    800021b0:	6442                	ld	s0,16(sp)
    800021b2:	64a2                	ld	s1,8(sp)
    800021b4:	6105                	addi	sp,sp,32
    800021b6:	8082                	ret

00000000800021b8 <bfree>:
}

// Free a disk block.
static void
bfree(int dev, uint b)
{
    800021b8:	1101                	addi	sp,sp,-32
    800021ba:	ec06                	sd	ra,24(sp)
    800021bc:	e822                	sd	s0,16(sp)
    800021be:	e426                	sd	s1,8(sp)
    800021c0:	e04a                	sd	s2,0(sp)
    800021c2:	1000                	addi	s0,sp,32
    800021c4:	84ae                	mv	s1,a1
  struct buf *bp;
  int bi, m;

  bp = bread(dev, BBLOCK(b, sb));
    800021c6:	00d5d79b          	srliw	a5,a1,0xd
    800021ca:	00016597          	auipc	a1,0x16
    800021ce:	59a5a583          	lw	a1,1434(a1) # 80018764 <sb+0x1c>
    800021d2:	9dbd                	addw	a1,a1,a5
    800021d4:	df1ff0ef          	jal	80001fc4 <bread>
  bi = b % BPB;
  m = 1 << (bi % 8);
    800021d8:	0074f713          	andi	a4,s1,7
    800021dc:	4785                	li	a5,1
    800021de:	00e797bb          	sllw	a5,a5,a4
  bi = b % BPB;
    800021e2:	14ce                	slli	s1,s1,0x33
  if((bp->data[bi/8] & m) == 0)
    800021e4:	90d9                	srli	s1,s1,0x36
    800021e6:	00950733          	add	a4,a0,s1
    800021ea:	05874703          	lbu	a4,88(a4)
    800021ee:	00e7f6b3          	and	a3,a5,a4
    800021f2:	c29d                	beqz	a3,80002218 <bfree+0x60>
    800021f4:	892a                	mv	s2,a0
    panic("freeing free block");
  bp->data[bi/8] &= ~m;
    800021f6:	94aa                	add	s1,s1,a0
    800021f8:	fff7c793          	not	a5,a5
    800021fc:	8f7d                	and	a4,a4,a5
    800021fe:	04e48c23          	sb	a4,88(s1)
  log_write(bp);
    80002202:	000010ef          	jal	80003202 <log_write>
  brelse(bp);
    80002206:	854a                	mv	a0,s2
    80002208:	ec5ff0ef          	jal	800020cc <brelse>
}
    8000220c:	60e2                	ld	ra,24(sp)
    8000220e:	6442                	ld	s0,16(sp)
    80002210:	64a2                	ld	s1,8(sp)
    80002212:	6902                	ld	s2,0(sp)
    80002214:	6105                	addi	sp,sp,32
    80002216:	8082                	ret
    panic("freeing free block");
    80002218:	00005517          	auipc	a0,0x5
    8000221c:	15050513          	addi	a0,a0,336 # 80007368 <etext+0x368>
    80002220:	416030ef          	jal	80005636 <panic>

0000000080002224 <balloc>:
{
    80002224:	715d                	addi	sp,sp,-80
    80002226:	e486                	sd	ra,72(sp)
    80002228:	e0a2                	sd	s0,64(sp)
    8000222a:	fc26                	sd	s1,56(sp)
    8000222c:	0880                	addi	s0,sp,80
  for(b = 0; b < sb.size; b += BPB){
    8000222e:	00016797          	auipc	a5,0x16
    80002232:	51e7a783          	lw	a5,1310(a5) # 8001874c <sb+0x4>
    80002236:	0e078263          	beqz	a5,8000231a <balloc+0xf6>
    8000223a:	f84a                	sd	s2,48(sp)
    8000223c:	f44e                	sd	s3,40(sp)
    8000223e:	f052                	sd	s4,32(sp)
    80002240:	ec56                	sd	s5,24(sp)
    80002242:	e85a                	sd	s6,16(sp)
    80002244:	e45e                	sd	s7,8(sp)
    80002246:	e062                	sd	s8,0(sp)
    80002248:	8baa                	mv	s7,a0
    8000224a:	4a81                	li	s5,0
    bp = bread(dev, BBLOCK(b, sb));
    8000224c:	00016b17          	auipc	s6,0x16
    80002250:	4fcb0b13          	addi	s6,s6,1276 # 80018748 <sb>
      m = 1 << (bi % 8);
    80002254:	4985                	li	s3,1
    for(bi = 0; bi < BPB && b + bi < sb.size; bi++){
    80002256:	6a09                	lui	s4,0x2
  for(b = 0; b < sb.size; b += BPB){
    80002258:	6c09                	lui	s8,0x2
    8000225a:	a09d                	j	800022c0 <balloc+0x9c>
        bp->data[bi/8] |= m;  // Mark block in use.
    8000225c:	97ca                	add	a5,a5,s2
    8000225e:	8e55                	or	a2,a2,a3
    80002260:	04c78c23          	sb	a2,88(a5)
        log_write(bp);
    80002264:	854a                	mv	a0,s2
    80002266:	79d000ef          	jal	80003202 <log_write>
        brelse(bp);
    8000226a:	854a                	mv	a0,s2
    8000226c:	e61ff0ef          	jal	800020cc <brelse>
  bp = bread(dev, bno);
    80002270:	85a6                	mv	a1,s1
    80002272:	855e                	mv	a0,s7
    80002274:	d51ff0ef          	jal	80001fc4 <bread>
    80002278:	892a                	mv	s2,a0
  memset(bp->data, 0, BSIZE);
    8000227a:	40000613          	li	a2,1024
    8000227e:	4581                	li	a1,0
    80002280:	05850513          	addi	a0,a0,88
    80002284:	edbfd0ef          	jal	8000015e <memset>
  log_write(bp);
    80002288:	854a                	mv	a0,s2
    8000228a:	779000ef          	jal	80003202 <log_write>
  brelse(bp);
    8000228e:	854a                	mv	a0,s2
    80002290:	e3dff0ef          	jal	800020cc <brelse>
}
    80002294:	7942                	ld	s2,48(sp)
    80002296:	79a2                	ld	s3,40(sp)
    80002298:	7a02                	ld	s4,32(sp)
    8000229a:	6ae2                	ld	s5,24(sp)
    8000229c:	6b42                	ld	s6,16(sp)
    8000229e:	6ba2                	ld	s7,8(sp)
    800022a0:	6c02                	ld	s8,0(sp)
}
    800022a2:	8526                	mv	a0,s1
    800022a4:	60a6                	ld	ra,72(sp)
    800022a6:	6406                	ld	s0,64(sp)
    800022a8:	74e2                	ld	s1,56(sp)
    800022aa:	6161                	addi	sp,sp,80
    800022ac:	8082                	ret
    brelse(bp);
    800022ae:	854a                	mv	a0,s2
    800022b0:	e1dff0ef          	jal	800020cc <brelse>
  for(b = 0; b < sb.size; b += BPB){
    800022b4:	015c0abb          	addw	s5,s8,s5
    800022b8:	004b2783          	lw	a5,4(s6)
    800022bc:	04faf863          	bgeu	s5,a5,8000230c <balloc+0xe8>
    bp = bread(dev, BBLOCK(b, sb));
    800022c0:	40dad59b          	sraiw	a1,s5,0xd
    800022c4:	01cb2783          	lw	a5,28(s6)
    800022c8:	9dbd                	addw	a1,a1,a5
    800022ca:	855e                	mv	a0,s7
    800022cc:	cf9ff0ef          	jal	80001fc4 <bread>
    800022d0:	892a                	mv	s2,a0
    for(bi = 0; bi < BPB && b + bi < sb.size; bi++){
    800022d2:	004b2503          	lw	a0,4(s6)
    800022d6:	84d6                	mv	s1,s5
    800022d8:	4701                	li	a4,0
    800022da:	fca4fae3          	bgeu	s1,a0,800022ae <balloc+0x8a>
      m = 1 << (bi % 8);
    800022de:	00777693          	andi	a3,a4,7
    800022e2:	00d996bb          	sllw	a3,s3,a3
      if((bp->data[bi/8] & m) == 0){  // Is block free?
    800022e6:	41f7579b          	sraiw	a5,a4,0x1f
    800022ea:	01d7d79b          	srliw	a5,a5,0x1d
    800022ee:	9fb9                	addw	a5,a5,a4
    800022f0:	4037d79b          	sraiw	a5,a5,0x3
    800022f4:	00f90633          	add	a2,s2,a5
    800022f8:	05864603          	lbu	a2,88(a2)
    800022fc:	00c6f5b3          	and	a1,a3,a2
    80002300:	ddb1                	beqz	a1,8000225c <balloc+0x38>
    for(bi = 0; bi < BPB && b + bi < sb.size; bi++){
    80002302:	2705                	addiw	a4,a4,1
    80002304:	2485                	addiw	s1,s1,1
    80002306:	fd471ae3          	bne	a4,s4,800022da <balloc+0xb6>
    8000230a:	b755                	j	800022ae <balloc+0x8a>
    8000230c:	7942                	ld	s2,48(sp)
    8000230e:	79a2                	ld	s3,40(sp)
    80002310:	7a02                	ld	s4,32(sp)
    80002312:	6ae2                	ld	s5,24(sp)
    80002314:	6b42                	ld	s6,16(sp)
    80002316:	6ba2                	ld	s7,8(sp)
    80002318:	6c02                	ld	s8,0(sp)
  printf("balloc: out of blocks\n");
    8000231a:	00005517          	auipc	a0,0x5
    8000231e:	06650513          	addi	a0,a0,102 # 80007380 <etext+0x380>
    80002322:	7eb020ef          	jal	8000530c <printf>
  return 0;
    80002326:	4481                	li	s1,0
    80002328:	bfad                	j	800022a2 <balloc+0x7e>

000000008000232a <bmap>:
// Return the disk block address of the nth block in inode ip.
// If there is no such block, bmap allocates one.
// returns 0 if out of disk space.
static uint
bmap(struct inode *ip, uint bn)
{
    8000232a:	7179                	addi	sp,sp,-48
    8000232c:	f406                	sd	ra,40(sp)
    8000232e:	f022                	sd	s0,32(sp)
    80002330:	ec26                	sd	s1,24(sp)
    80002332:	e84a                	sd	s2,16(sp)
    80002334:	e44e                	sd	s3,8(sp)
    80002336:	1800                	addi	s0,sp,48
    80002338:	892a                	mv	s2,a0
  uint addr, *a;
  struct buf *bp;

  if(bn < NDIRECT){
    8000233a:	47ad                	li	a5,11
    8000233c:	02b7e363          	bltu	a5,a1,80002362 <bmap+0x38>
    if((addr = ip->addrs[bn]) == 0){
    80002340:	02059793          	slli	a5,a1,0x20
    80002344:	01e7d593          	srli	a1,a5,0x1e
    80002348:	00b509b3          	add	s3,a0,a1
    8000234c:	0509a483          	lw	s1,80(s3)
    80002350:	e0b5                	bnez	s1,800023b4 <bmap+0x8a>
      addr = balloc(ip->dev);
    80002352:	4108                	lw	a0,0(a0)
    80002354:	ed1ff0ef          	jal	80002224 <balloc>
    80002358:	84aa                	mv	s1,a0
      if(addr == 0)
    8000235a:	cd29                	beqz	a0,800023b4 <bmap+0x8a>
        return 0;
      ip->addrs[bn] = addr;
    8000235c:	04a9a823          	sw	a0,80(s3)
    80002360:	a891                	j	800023b4 <bmap+0x8a>
    }
    return addr;
  }
  bn -= NDIRECT;
    80002362:	ff45879b          	addiw	a5,a1,-12
    80002366:	873e                	mv	a4,a5
    80002368:	89be                	mv	s3,a5

  if(bn < NINDIRECT){
    8000236a:	0ff00793          	li	a5,255
    8000236e:	06e7e763          	bltu	a5,a4,800023dc <bmap+0xb2>
    // Load indirect block, allocating if necessary.
    if((addr = ip->addrs[NDIRECT]) == 0){
    80002372:	08052483          	lw	s1,128(a0)
    80002376:	e891                	bnez	s1,8000238a <bmap+0x60>
      addr = balloc(ip->dev);
    80002378:	4108                	lw	a0,0(a0)
    8000237a:	eabff0ef          	jal	80002224 <balloc>
    8000237e:	84aa                	mv	s1,a0
      if(addr == 0)
    80002380:	c915                	beqz	a0,800023b4 <bmap+0x8a>
    80002382:	e052                	sd	s4,0(sp)
        return 0;
      ip->addrs[NDIRECT] = addr;
    80002384:	08a92023          	sw	a0,128(s2)
    80002388:	a011                	j	8000238c <bmap+0x62>
    8000238a:	e052                	sd	s4,0(sp)
    }
    bp = bread(ip->dev, addr);
    8000238c:	85a6                	mv	a1,s1
    8000238e:	00092503          	lw	a0,0(s2)
    80002392:	c33ff0ef          	jal	80001fc4 <bread>
    80002396:	8a2a                	mv	s4,a0
    a = (uint*)bp->data;
    80002398:	05850793          	addi	a5,a0,88
    if((addr = a[bn]) == 0){
    8000239c:	02099713          	slli	a4,s3,0x20
    800023a0:	01e75593          	srli	a1,a4,0x1e
    800023a4:	97ae                	add	a5,a5,a1
    800023a6:	89be                	mv	s3,a5
    800023a8:	4384                	lw	s1,0(a5)
    800023aa:	cc89                	beqz	s1,800023c4 <bmap+0x9a>
      if(addr){
        a[bn] = addr;
        log_write(bp);
      }
    }
    brelse(bp);
    800023ac:	8552                	mv	a0,s4
    800023ae:	d1fff0ef          	jal	800020cc <brelse>
    return addr;
    800023b2:	6a02                	ld	s4,0(sp)
  }

  panic("bmap: out of range");
}
    800023b4:	8526                	mv	a0,s1
    800023b6:	70a2                	ld	ra,40(sp)
    800023b8:	7402                	ld	s0,32(sp)
    800023ba:	64e2                	ld	s1,24(sp)
    800023bc:	6942                	ld	s2,16(sp)
    800023be:	69a2                	ld	s3,8(sp)
    800023c0:	6145                	addi	sp,sp,48
    800023c2:	8082                	ret
      addr = balloc(ip->dev);
    800023c4:	00092503          	lw	a0,0(s2)
    800023c8:	e5dff0ef          	jal	80002224 <balloc>
    800023cc:	84aa                	mv	s1,a0
      if(addr){
    800023ce:	dd79                	beqz	a0,800023ac <bmap+0x82>
        a[bn] = addr;
    800023d0:	00a9a023          	sw	a0,0(s3)
        log_write(bp);
    800023d4:	8552                	mv	a0,s4
    800023d6:	62d000ef          	jal	80003202 <log_write>
    800023da:	bfc9                	j	800023ac <bmap+0x82>
    800023dc:	e052                	sd	s4,0(sp)
  panic("bmap: out of range");
    800023de:	00005517          	auipc	a0,0x5
    800023e2:	fba50513          	addi	a0,a0,-70 # 80007398 <etext+0x398>
    800023e6:	250030ef          	jal	80005636 <panic>

00000000800023ea <iget>:
{
    800023ea:	7179                	addi	sp,sp,-48
    800023ec:	f406                	sd	ra,40(sp)
    800023ee:	f022                	sd	s0,32(sp)
    800023f0:	ec26                	sd	s1,24(sp)
    800023f2:	e84a                	sd	s2,16(sp)
    800023f4:	e44e                	sd	s3,8(sp)
    800023f6:	e052                	sd	s4,0(sp)
    800023f8:	1800                	addi	s0,sp,48
    800023fa:	892a                	mv	s2,a0
    800023fc:	8a2e                	mv	s4,a1
  acquire(&itable.lock);
    800023fe:	00016517          	auipc	a0,0x16
    80002402:	36a50513          	addi	a0,a0,874 # 80018768 <itable>
    80002406:	4f2030ef          	jal	800058f8 <acquire>
  empty = 0;
    8000240a:	4981                	li	s3,0
  for(ip = &itable.inode[0]; ip < &itable.inode[NINODE]; ip++){
    8000240c:	00016497          	auipc	s1,0x16
    80002410:	37448493          	addi	s1,s1,884 # 80018780 <itable+0x18>
    80002414:	00018697          	auipc	a3,0x18
    80002418:	dfc68693          	addi	a3,a3,-516 # 8001a210 <log>
    8000241c:	a809                	j	8000242e <iget+0x44>
    if(empty == 0 && ip->ref == 0)    // Remember empty slot.
    8000241e:	e781                	bnez	a5,80002426 <iget+0x3c>
    80002420:	00099363          	bnez	s3,80002426 <iget+0x3c>
      empty = ip;
    80002424:	89a6                	mv	s3,s1
  for(ip = &itable.inode[0]; ip < &itable.inode[NINODE]; ip++){
    80002426:	08848493          	addi	s1,s1,136
    8000242a:	02d48563          	beq	s1,a3,80002454 <iget+0x6a>
    if(ip->ref > 0 && ip->dev == dev && ip->inum == inum){
    8000242e:	449c                	lw	a5,8(s1)
    80002430:	fef057e3          	blez	a5,8000241e <iget+0x34>
    80002434:	4098                	lw	a4,0(s1)
    80002436:	ff2718e3          	bne	a4,s2,80002426 <iget+0x3c>
    8000243a:	40d8                	lw	a4,4(s1)
    8000243c:	ff4715e3          	bne	a4,s4,80002426 <iget+0x3c>
      ip->ref++;
    80002440:	2785                	addiw	a5,a5,1
    80002442:	c49c                	sw	a5,8(s1)
      release(&itable.lock);
    80002444:	00016517          	auipc	a0,0x16
    80002448:	32450513          	addi	a0,a0,804 # 80018768 <itable>
    8000244c:	540030ef          	jal	8000598c <release>
      return ip;
    80002450:	89a6                	mv	s3,s1
    80002452:	a015                	j	80002476 <iget+0x8c>
  if(empty == 0)
    80002454:	02098a63          	beqz	s3,80002488 <iget+0x9e>
  ip->dev = dev;
    80002458:	0129a023          	sw	s2,0(s3)
  ip->inum = inum;
    8000245c:	0149a223          	sw	s4,4(s3)
  ip->ref = 1;
    80002460:	4785                	li	a5,1
    80002462:	00f9a423          	sw	a5,8(s3)
  ip->valid = 0;
    80002466:	0409a023          	sw	zero,64(s3)
  release(&itable.lock);
    8000246a:	00016517          	auipc	a0,0x16
    8000246e:	2fe50513          	addi	a0,a0,766 # 80018768 <itable>
    80002472:	51a030ef          	jal	8000598c <release>
}
    80002476:	854e                	mv	a0,s3
    80002478:	70a2                	ld	ra,40(sp)
    8000247a:	7402                	ld	s0,32(sp)
    8000247c:	64e2                	ld	s1,24(sp)
    8000247e:	6942                	ld	s2,16(sp)
    80002480:	69a2                	ld	s3,8(sp)
    80002482:	6a02                	ld	s4,0(sp)
    80002484:	6145                	addi	sp,sp,48
    80002486:	8082                	ret
    panic("iget: no inodes");
    80002488:	00005517          	auipc	a0,0x5
    8000248c:	f2850513          	addi	a0,a0,-216 # 800073b0 <etext+0x3b0>
    80002490:	1a6030ef          	jal	80005636 <panic>

0000000080002494 <iinit>:
{
    80002494:	7179                	addi	sp,sp,-48
    80002496:	f406                	sd	ra,40(sp)
    80002498:	f022                	sd	s0,32(sp)
    8000249a:	ec26                	sd	s1,24(sp)
    8000249c:	e84a                	sd	s2,16(sp)
    8000249e:	e44e                	sd	s3,8(sp)
    800024a0:	1800                	addi	s0,sp,48
  initlock(&itable.lock, "itable");
    800024a2:	00005597          	auipc	a1,0x5
    800024a6:	f1e58593          	addi	a1,a1,-226 # 800073c0 <etext+0x3c0>
    800024aa:	00016517          	auipc	a0,0x16
    800024ae:	2be50513          	addi	a0,a0,702 # 80018768 <itable>
    800024b2:	3bc030ef          	jal	8000586e <initlock>
  for(i = 0; i < NINODE; i++) {
    800024b6:	00016497          	auipc	s1,0x16
    800024ba:	2da48493          	addi	s1,s1,730 # 80018790 <itable+0x28>
    800024be:	00018997          	auipc	s3,0x18
    800024c2:	d6298993          	addi	s3,s3,-670 # 8001a220 <log+0x10>
    initsleeplock(&itable.inode[i].lock, "inode");
    800024c6:	00005917          	auipc	s2,0x5
    800024ca:	f0290913          	addi	s2,s2,-254 # 800073c8 <etext+0x3c8>
    800024ce:	85ca                	mv	a1,s2
    800024d0:	8526                	mv	a0,s1
    800024d2:	5f5000ef          	jal	800032c6 <initsleeplock>
  for(i = 0; i < NINODE; i++) {
    800024d6:	08848493          	addi	s1,s1,136
    800024da:	ff349ae3          	bne	s1,s3,800024ce <iinit+0x3a>
}
    800024de:	70a2                	ld	ra,40(sp)
    800024e0:	7402                	ld	s0,32(sp)
    800024e2:	64e2                	ld	s1,24(sp)
    800024e4:	6942                	ld	s2,16(sp)
    800024e6:	69a2                	ld	s3,8(sp)
    800024e8:	6145                	addi	sp,sp,48
    800024ea:	8082                	ret

00000000800024ec <ialloc>:
{
    800024ec:	7139                	addi	sp,sp,-64
    800024ee:	fc06                	sd	ra,56(sp)
    800024f0:	f822                	sd	s0,48(sp)
    800024f2:	0080                	addi	s0,sp,64
  for(inum = 1; inum < sb.ninodes; inum++){
    800024f4:	00016717          	auipc	a4,0x16
    800024f8:	26072703          	lw	a4,608(a4) # 80018754 <sb+0xc>
    800024fc:	4785                	li	a5,1
    800024fe:	06e7f063          	bgeu	a5,a4,8000255e <ialloc+0x72>
    80002502:	f426                	sd	s1,40(sp)
    80002504:	f04a                	sd	s2,32(sp)
    80002506:	ec4e                	sd	s3,24(sp)
    80002508:	e852                	sd	s4,16(sp)
    8000250a:	e456                	sd	s5,8(sp)
    8000250c:	e05a                	sd	s6,0(sp)
    8000250e:	8aaa                	mv	s5,a0
    80002510:	8b2e                	mv	s6,a1
    80002512:	893e                	mv	s2,a5
    bp = bread(dev, IBLOCK(inum, sb));
    80002514:	00016a17          	auipc	s4,0x16
    80002518:	234a0a13          	addi	s4,s4,564 # 80018748 <sb>
    8000251c:	00495593          	srli	a1,s2,0x4
    80002520:	018a2783          	lw	a5,24(s4)
    80002524:	9dbd                	addw	a1,a1,a5
    80002526:	8556                	mv	a0,s5
    80002528:	a9dff0ef          	jal	80001fc4 <bread>
    8000252c:	84aa                	mv	s1,a0
    dip = (struct dinode*)bp->data + inum%IPB;
    8000252e:	05850993          	addi	s3,a0,88
    80002532:	00f97793          	andi	a5,s2,15
    80002536:	079a                	slli	a5,a5,0x6
    80002538:	99be                	add	s3,s3,a5
    if(dip->type == 0){  // a free inode
    8000253a:	00099783          	lh	a5,0(s3)
    8000253e:	cb9d                	beqz	a5,80002574 <ialloc+0x88>
    brelse(bp);
    80002540:	b8dff0ef          	jal	800020cc <brelse>
  for(inum = 1; inum < sb.ninodes; inum++){
    80002544:	0905                	addi	s2,s2,1
    80002546:	00ca2703          	lw	a4,12(s4)
    8000254a:	0009079b          	sext.w	a5,s2
    8000254e:	fce7e7e3          	bltu	a5,a4,8000251c <ialloc+0x30>
    80002552:	74a2                	ld	s1,40(sp)
    80002554:	7902                	ld	s2,32(sp)
    80002556:	69e2                	ld	s3,24(sp)
    80002558:	6a42                	ld	s4,16(sp)
    8000255a:	6aa2                	ld	s5,8(sp)
    8000255c:	6b02                	ld	s6,0(sp)
  printf("ialloc: no inodes\n");
    8000255e:	00005517          	auipc	a0,0x5
    80002562:	e7250513          	addi	a0,a0,-398 # 800073d0 <etext+0x3d0>
    80002566:	5a7020ef          	jal	8000530c <printf>
  return 0;
    8000256a:	4501                	li	a0,0
}
    8000256c:	70e2                	ld	ra,56(sp)
    8000256e:	7442                	ld	s0,48(sp)
    80002570:	6121                	addi	sp,sp,64
    80002572:	8082                	ret
      memset(dip, 0, sizeof(*dip));
    80002574:	04000613          	li	a2,64
    80002578:	4581                	li	a1,0
    8000257a:	854e                	mv	a0,s3
    8000257c:	be3fd0ef          	jal	8000015e <memset>
      dip->type = type;
    80002580:	01699023          	sh	s6,0(s3)
      log_write(bp);   // mark it allocated on the disk
    80002584:	8526                	mv	a0,s1
    80002586:	47d000ef          	jal	80003202 <log_write>
      brelse(bp);
    8000258a:	8526                	mv	a0,s1
    8000258c:	b41ff0ef          	jal	800020cc <brelse>
      return iget(dev, inum);
    80002590:	0009059b          	sext.w	a1,s2
    80002594:	8556                	mv	a0,s5
    80002596:	e55ff0ef          	jal	800023ea <iget>
    8000259a:	74a2                	ld	s1,40(sp)
    8000259c:	7902                	ld	s2,32(sp)
    8000259e:	69e2                	ld	s3,24(sp)
    800025a0:	6a42                	ld	s4,16(sp)
    800025a2:	6aa2                	ld	s5,8(sp)
    800025a4:	6b02                	ld	s6,0(sp)
    800025a6:	b7d9                	j	8000256c <ialloc+0x80>

00000000800025a8 <iupdate>:
{
    800025a8:	1101                	addi	sp,sp,-32
    800025aa:	ec06                	sd	ra,24(sp)
    800025ac:	e822                	sd	s0,16(sp)
    800025ae:	e426                	sd	s1,8(sp)
    800025b0:	e04a                	sd	s2,0(sp)
    800025b2:	1000                	addi	s0,sp,32
    800025b4:	84aa                	mv	s1,a0
  bp = bread(ip->dev, IBLOCK(ip->inum, sb));
    800025b6:	415c                	lw	a5,4(a0)
    800025b8:	0047d79b          	srliw	a5,a5,0x4
    800025bc:	00016597          	auipc	a1,0x16
    800025c0:	1a45a583          	lw	a1,420(a1) # 80018760 <sb+0x18>
    800025c4:	9dbd                	addw	a1,a1,a5
    800025c6:	4108                	lw	a0,0(a0)
    800025c8:	9fdff0ef          	jal	80001fc4 <bread>
    800025cc:	892a                	mv	s2,a0
  dip = (struct dinode*)bp->data + ip->inum%IPB;
    800025ce:	05850793          	addi	a5,a0,88
    800025d2:	40d8                	lw	a4,4(s1)
    800025d4:	8b3d                	andi	a4,a4,15
    800025d6:	071a                	slli	a4,a4,0x6
    800025d8:	97ba                	add	a5,a5,a4
  dip->type = ip->type;
    800025da:	04449703          	lh	a4,68(s1)
    800025de:	00e79023          	sh	a4,0(a5)
  dip->major = ip->major;
    800025e2:	04649703          	lh	a4,70(s1)
    800025e6:	00e79123          	sh	a4,2(a5)
  dip->minor = ip->minor;
    800025ea:	04849703          	lh	a4,72(s1)
    800025ee:	00e79223          	sh	a4,4(a5)
  dip->nlink = ip->nlink;
    800025f2:	04a49703          	lh	a4,74(s1)
    800025f6:	00e79323          	sh	a4,6(a5)
  dip->size = ip->size;
    800025fa:	44f8                	lw	a4,76(s1)
    800025fc:	c798                	sw	a4,8(a5)
  memmove(dip->addrs, ip->addrs, sizeof(ip->addrs));
    800025fe:	03400613          	li	a2,52
    80002602:	05048593          	addi	a1,s1,80
    80002606:	00c78513          	addi	a0,a5,12
    8000260a:	bb5fd0ef          	jal	800001be <memmove>
  log_write(bp);
    8000260e:	854a                	mv	a0,s2
    80002610:	3f3000ef          	jal	80003202 <log_write>
  brelse(bp);
    80002614:	854a                	mv	a0,s2
    80002616:	ab7ff0ef          	jal	800020cc <brelse>
}
    8000261a:	60e2                	ld	ra,24(sp)
    8000261c:	6442                	ld	s0,16(sp)
    8000261e:	64a2                	ld	s1,8(sp)
    80002620:	6902                	ld	s2,0(sp)
    80002622:	6105                	addi	sp,sp,32
    80002624:	8082                	ret

0000000080002626 <idup>:
{
    80002626:	1101                	addi	sp,sp,-32
    80002628:	ec06                	sd	ra,24(sp)
    8000262a:	e822                	sd	s0,16(sp)
    8000262c:	e426                	sd	s1,8(sp)
    8000262e:	1000                	addi	s0,sp,32
    80002630:	84aa                	mv	s1,a0
  acquire(&itable.lock);
    80002632:	00016517          	auipc	a0,0x16
    80002636:	13650513          	addi	a0,a0,310 # 80018768 <itable>
    8000263a:	2be030ef          	jal	800058f8 <acquire>
  ip->ref++;
    8000263e:	449c                	lw	a5,8(s1)
    80002640:	2785                	addiw	a5,a5,1
    80002642:	c49c                	sw	a5,8(s1)
  release(&itable.lock);
    80002644:	00016517          	auipc	a0,0x16
    80002648:	12450513          	addi	a0,a0,292 # 80018768 <itable>
    8000264c:	340030ef          	jal	8000598c <release>
}
    80002650:	8526                	mv	a0,s1
    80002652:	60e2                	ld	ra,24(sp)
    80002654:	6442                	ld	s0,16(sp)
    80002656:	64a2                	ld	s1,8(sp)
    80002658:	6105                	addi	sp,sp,32
    8000265a:	8082                	ret

000000008000265c <ilock>:
{
    8000265c:	1101                	addi	sp,sp,-32
    8000265e:	ec06                	sd	ra,24(sp)
    80002660:	e822                	sd	s0,16(sp)
    80002662:	e426                	sd	s1,8(sp)
    80002664:	1000                	addi	s0,sp,32
  if(ip == 0 || ip->ref < 1)
    80002666:	cd19                	beqz	a0,80002684 <ilock+0x28>
    80002668:	84aa                	mv	s1,a0
    8000266a:	451c                	lw	a5,8(a0)
    8000266c:	00f05c63          	blez	a5,80002684 <ilock+0x28>
  acquiresleep(&ip->lock);
    80002670:	0541                	addi	a0,a0,16
    80002672:	48b000ef          	jal	800032fc <acquiresleep>
  if(ip->valid == 0){
    80002676:	40bc                	lw	a5,64(s1)
    80002678:	cf89                	beqz	a5,80002692 <ilock+0x36>
}
    8000267a:	60e2                	ld	ra,24(sp)
    8000267c:	6442                	ld	s0,16(sp)
    8000267e:	64a2                	ld	s1,8(sp)
    80002680:	6105                	addi	sp,sp,32
    80002682:	8082                	ret
    80002684:	e04a                	sd	s2,0(sp)
    panic("ilock");
    80002686:	00005517          	auipc	a0,0x5
    8000268a:	d6250513          	addi	a0,a0,-670 # 800073e8 <etext+0x3e8>
    8000268e:	7a9020ef          	jal	80005636 <panic>
    80002692:	e04a                	sd	s2,0(sp)
    bp = bread(ip->dev, IBLOCK(ip->inum, sb));
    80002694:	40dc                	lw	a5,4(s1)
    80002696:	0047d79b          	srliw	a5,a5,0x4
    8000269a:	00016597          	auipc	a1,0x16
    8000269e:	0c65a583          	lw	a1,198(a1) # 80018760 <sb+0x18>
    800026a2:	9dbd                	addw	a1,a1,a5
    800026a4:	4088                	lw	a0,0(s1)
    800026a6:	91fff0ef          	jal	80001fc4 <bread>
    800026aa:	892a                	mv	s2,a0
    dip = (struct dinode*)bp->data + ip->inum%IPB;
    800026ac:	05850593          	addi	a1,a0,88
    800026b0:	40dc                	lw	a5,4(s1)
    800026b2:	8bbd                	andi	a5,a5,15
    800026b4:	079a                	slli	a5,a5,0x6
    800026b6:	95be                	add	a1,a1,a5
    ip->type = dip->type;
    800026b8:	00059783          	lh	a5,0(a1)
    800026bc:	04f49223          	sh	a5,68(s1)
    ip->major = dip->major;
    800026c0:	00259783          	lh	a5,2(a1)
    800026c4:	04f49323          	sh	a5,70(s1)
    ip->minor = dip->minor;
    800026c8:	00459783          	lh	a5,4(a1)
    800026cc:	04f49423          	sh	a5,72(s1)
    ip->nlink = dip->nlink;
    800026d0:	00659783          	lh	a5,6(a1)
    800026d4:	04f49523          	sh	a5,74(s1)
    ip->size = dip->size;
    800026d8:	459c                	lw	a5,8(a1)
    800026da:	c4fc                	sw	a5,76(s1)
    memmove(ip->addrs, dip->addrs, sizeof(ip->addrs));
    800026dc:	03400613          	li	a2,52
    800026e0:	05b1                	addi	a1,a1,12
    800026e2:	05048513          	addi	a0,s1,80
    800026e6:	ad9fd0ef          	jal	800001be <memmove>
    brelse(bp);
    800026ea:	854a                	mv	a0,s2
    800026ec:	9e1ff0ef          	jal	800020cc <brelse>
    ip->valid = 1;
    800026f0:	4785                	li	a5,1
    800026f2:	c0bc                	sw	a5,64(s1)
    if(ip->type == 0)
    800026f4:	04449783          	lh	a5,68(s1)
    800026f8:	c399                	beqz	a5,800026fe <ilock+0xa2>
    800026fa:	6902                	ld	s2,0(sp)
    800026fc:	bfbd                	j	8000267a <ilock+0x1e>
      panic("ilock: no type");
    800026fe:	00005517          	auipc	a0,0x5
    80002702:	cf250513          	addi	a0,a0,-782 # 800073f0 <etext+0x3f0>
    80002706:	731020ef          	jal	80005636 <panic>

000000008000270a <iunlock>:
{
    8000270a:	1101                	addi	sp,sp,-32
    8000270c:	ec06                	sd	ra,24(sp)
    8000270e:	e822                	sd	s0,16(sp)
    80002710:	e426                	sd	s1,8(sp)
    80002712:	e04a                	sd	s2,0(sp)
    80002714:	1000                	addi	s0,sp,32
  if(ip == 0 || !holdingsleep(&ip->lock) || ip->ref < 1)
    80002716:	c505                	beqz	a0,8000273e <iunlock+0x34>
    80002718:	84aa                	mv	s1,a0
    8000271a:	01050913          	addi	s2,a0,16
    8000271e:	854a                	mv	a0,s2
    80002720:	45b000ef          	jal	8000337a <holdingsleep>
    80002724:	cd09                	beqz	a0,8000273e <iunlock+0x34>
    80002726:	449c                	lw	a5,8(s1)
    80002728:	00f05b63          	blez	a5,8000273e <iunlock+0x34>
  releasesleep(&ip->lock);
    8000272c:	854a                	mv	a0,s2
    8000272e:	415000ef          	jal	80003342 <releasesleep>
}
    80002732:	60e2                	ld	ra,24(sp)
    80002734:	6442                	ld	s0,16(sp)
    80002736:	64a2                	ld	s1,8(sp)
    80002738:	6902                	ld	s2,0(sp)
    8000273a:	6105                	addi	sp,sp,32
    8000273c:	8082                	ret
    panic("iunlock");
    8000273e:	00005517          	auipc	a0,0x5
    80002742:	cc250513          	addi	a0,a0,-830 # 80007400 <etext+0x400>
    80002746:	6f1020ef          	jal	80005636 <panic>

000000008000274a <itrunc>:

// Truncate inode (discard contents).
// Caller must hold ip->lock.
void
itrunc(struct inode *ip)
{
    8000274a:	7179                	addi	sp,sp,-48
    8000274c:	f406                	sd	ra,40(sp)
    8000274e:	f022                	sd	s0,32(sp)
    80002750:	ec26                	sd	s1,24(sp)
    80002752:	e84a                	sd	s2,16(sp)
    80002754:	e44e                	sd	s3,8(sp)
    80002756:	1800                	addi	s0,sp,48
    80002758:	89aa                	mv	s3,a0
  int i, j;
  struct buf *bp;
  uint *a;

  for(i = 0; i < NDIRECT; i++){
    8000275a:	05050493          	addi	s1,a0,80
    8000275e:	08050913          	addi	s2,a0,128
    80002762:	a021                	j	8000276a <itrunc+0x20>
    80002764:	0491                	addi	s1,s1,4
    80002766:	01248b63          	beq	s1,s2,8000277c <itrunc+0x32>
    if(ip->addrs[i]){
    8000276a:	408c                	lw	a1,0(s1)
    8000276c:	dde5                	beqz	a1,80002764 <itrunc+0x1a>
      bfree(ip->dev, ip->addrs[i]);
    8000276e:	0009a503          	lw	a0,0(s3)
    80002772:	a47ff0ef          	jal	800021b8 <bfree>
      ip->addrs[i] = 0;
    80002776:	0004a023          	sw	zero,0(s1)
    8000277a:	b7ed                	j	80002764 <itrunc+0x1a>
    }
  }

  if(ip->addrs[NDIRECT]){
    8000277c:	0809a583          	lw	a1,128(s3)
    80002780:	ed89                	bnez	a1,8000279a <itrunc+0x50>
    brelse(bp);
    bfree(ip->dev, ip->addrs[NDIRECT]);
    ip->addrs[NDIRECT] = 0;
  }

  ip->size = 0;
    80002782:	0409a623          	sw	zero,76(s3)
  iupdate(ip);
    80002786:	854e                	mv	a0,s3
    80002788:	e21ff0ef          	jal	800025a8 <iupdate>
}
    8000278c:	70a2                	ld	ra,40(sp)
    8000278e:	7402                	ld	s0,32(sp)
    80002790:	64e2                	ld	s1,24(sp)
    80002792:	6942                	ld	s2,16(sp)
    80002794:	69a2                	ld	s3,8(sp)
    80002796:	6145                	addi	sp,sp,48
    80002798:	8082                	ret
    8000279a:	e052                	sd	s4,0(sp)
    bp = bread(ip->dev, ip->addrs[NDIRECT]);
    8000279c:	0009a503          	lw	a0,0(s3)
    800027a0:	825ff0ef          	jal	80001fc4 <bread>
    800027a4:	8a2a                	mv	s4,a0
    for(j = 0; j < NINDIRECT; j++){
    800027a6:	05850493          	addi	s1,a0,88
    800027aa:	45850913          	addi	s2,a0,1112
    800027ae:	a021                	j	800027b6 <itrunc+0x6c>
    800027b0:	0491                	addi	s1,s1,4
    800027b2:	01248963          	beq	s1,s2,800027c4 <itrunc+0x7a>
      if(a[j])
    800027b6:	408c                	lw	a1,0(s1)
    800027b8:	dde5                	beqz	a1,800027b0 <itrunc+0x66>
        bfree(ip->dev, a[j]);
    800027ba:	0009a503          	lw	a0,0(s3)
    800027be:	9fbff0ef          	jal	800021b8 <bfree>
    800027c2:	b7fd                	j	800027b0 <itrunc+0x66>
    brelse(bp);
    800027c4:	8552                	mv	a0,s4
    800027c6:	907ff0ef          	jal	800020cc <brelse>
    bfree(ip->dev, ip->addrs[NDIRECT]);
    800027ca:	0809a583          	lw	a1,128(s3)
    800027ce:	0009a503          	lw	a0,0(s3)
    800027d2:	9e7ff0ef          	jal	800021b8 <bfree>
    ip->addrs[NDIRECT] = 0;
    800027d6:	0809a023          	sw	zero,128(s3)
    800027da:	6a02                	ld	s4,0(sp)
    800027dc:	b75d                	j	80002782 <itrunc+0x38>

00000000800027de <iput>:
{
    800027de:	1101                	addi	sp,sp,-32
    800027e0:	ec06                	sd	ra,24(sp)
    800027e2:	e822                	sd	s0,16(sp)
    800027e4:	e426                	sd	s1,8(sp)
    800027e6:	1000                	addi	s0,sp,32
    800027e8:	84aa                	mv	s1,a0
  acquire(&itable.lock);
    800027ea:	00016517          	auipc	a0,0x16
    800027ee:	f7e50513          	addi	a0,a0,-130 # 80018768 <itable>
    800027f2:	106030ef          	jal	800058f8 <acquire>
  if(ip->ref == 1 && ip->valid && ip->nlink == 0){
    800027f6:	4498                	lw	a4,8(s1)
    800027f8:	4785                	li	a5,1
    800027fa:	02f70063          	beq	a4,a5,8000281a <iput+0x3c>
  ip->ref--;
    800027fe:	449c                	lw	a5,8(s1)
    80002800:	37fd                	addiw	a5,a5,-1
    80002802:	c49c                	sw	a5,8(s1)
  release(&itable.lock);
    80002804:	00016517          	auipc	a0,0x16
    80002808:	f6450513          	addi	a0,a0,-156 # 80018768 <itable>
    8000280c:	180030ef          	jal	8000598c <release>
}
    80002810:	60e2                	ld	ra,24(sp)
    80002812:	6442                	ld	s0,16(sp)
    80002814:	64a2                	ld	s1,8(sp)
    80002816:	6105                	addi	sp,sp,32
    80002818:	8082                	ret
  if(ip->ref == 1 && ip->valid && ip->nlink == 0){
    8000281a:	40bc                	lw	a5,64(s1)
    8000281c:	d3ed                	beqz	a5,800027fe <iput+0x20>
    8000281e:	04a49783          	lh	a5,74(s1)
    80002822:	fff1                	bnez	a5,800027fe <iput+0x20>
    80002824:	e04a                	sd	s2,0(sp)
    acquiresleep(&ip->lock);
    80002826:	01048793          	addi	a5,s1,16
    8000282a:	893e                	mv	s2,a5
    8000282c:	853e                	mv	a0,a5
    8000282e:	2cf000ef          	jal	800032fc <acquiresleep>
    release(&itable.lock);
    80002832:	00016517          	auipc	a0,0x16
    80002836:	f3650513          	addi	a0,a0,-202 # 80018768 <itable>
    8000283a:	152030ef          	jal	8000598c <release>
    itrunc(ip);
    8000283e:	8526                	mv	a0,s1
    80002840:	f0bff0ef          	jal	8000274a <itrunc>
    ip->type = 0;
    80002844:	04049223          	sh	zero,68(s1)
    iupdate(ip);
    80002848:	8526                	mv	a0,s1
    8000284a:	d5fff0ef          	jal	800025a8 <iupdate>
    ip->valid = 0;
    8000284e:	0404a023          	sw	zero,64(s1)
    releasesleep(&ip->lock);
    80002852:	854a                	mv	a0,s2
    80002854:	2ef000ef          	jal	80003342 <releasesleep>
    acquire(&itable.lock);
    80002858:	00016517          	auipc	a0,0x16
    8000285c:	f1050513          	addi	a0,a0,-240 # 80018768 <itable>
    80002860:	098030ef          	jal	800058f8 <acquire>
    80002864:	6902                	ld	s2,0(sp)
    80002866:	bf61                	j	800027fe <iput+0x20>

0000000080002868 <iunlockput>:
{
    80002868:	1101                	addi	sp,sp,-32
    8000286a:	ec06                	sd	ra,24(sp)
    8000286c:	e822                	sd	s0,16(sp)
    8000286e:	e426                	sd	s1,8(sp)
    80002870:	1000                	addi	s0,sp,32
    80002872:	84aa                	mv	s1,a0
  iunlock(ip);
    80002874:	e97ff0ef          	jal	8000270a <iunlock>
  iput(ip);
    80002878:	8526                	mv	a0,s1
    8000287a:	f65ff0ef          	jal	800027de <iput>
}
    8000287e:	60e2                	ld	ra,24(sp)
    80002880:	6442                	ld	s0,16(sp)
    80002882:	64a2                	ld	s1,8(sp)
    80002884:	6105                	addi	sp,sp,32
    80002886:	8082                	ret

0000000080002888 <ireclaim>:
  for (int inum = 1; inum < sb.ninodes; inum++) {
    80002888:	00016717          	auipc	a4,0x16
    8000288c:	ecc72703          	lw	a4,-308(a4) # 80018754 <sb+0xc>
    80002890:	4785                	li	a5,1
    80002892:	0ae7fe63          	bgeu	a5,a4,8000294e <ireclaim+0xc6>
{
    80002896:	7139                	addi	sp,sp,-64
    80002898:	fc06                	sd	ra,56(sp)
    8000289a:	f822                	sd	s0,48(sp)
    8000289c:	f426                	sd	s1,40(sp)
    8000289e:	f04a                	sd	s2,32(sp)
    800028a0:	ec4e                	sd	s3,24(sp)
    800028a2:	e852                	sd	s4,16(sp)
    800028a4:	e456                	sd	s5,8(sp)
    800028a6:	e05a                	sd	s6,0(sp)
    800028a8:	0080                	addi	s0,sp,64
    800028aa:	8aaa                	mv	s5,a0
  for (int inum = 1; inum < sb.ninodes; inum++) {
    800028ac:	84be                	mv	s1,a5
    struct buf *bp = bread(dev, IBLOCK(inum, sb));
    800028ae:	00016a17          	auipc	s4,0x16
    800028b2:	e9aa0a13          	addi	s4,s4,-358 # 80018748 <sb>
      printf("ireclaim: orphaned inode %d\n", inum);
    800028b6:	00005b17          	auipc	s6,0x5
    800028ba:	b52b0b13          	addi	s6,s6,-1198 # 80007408 <etext+0x408>
    800028be:	a099                	j	80002904 <ireclaim+0x7c>
    800028c0:	85ce                	mv	a1,s3
    800028c2:	855a                	mv	a0,s6
    800028c4:	249020ef          	jal	8000530c <printf>
      ip = iget(dev, inum);
    800028c8:	85ce                	mv	a1,s3
    800028ca:	8556                	mv	a0,s5
    800028cc:	b1fff0ef          	jal	800023ea <iget>
    800028d0:	89aa                	mv	s3,a0
    brelse(bp);
    800028d2:	854a                	mv	a0,s2
    800028d4:	ff8ff0ef          	jal	800020cc <brelse>
    if (ip) {
    800028d8:	00098f63          	beqz	s3,800028f6 <ireclaim+0x6e>
      begin_op();
    800028dc:	78c000ef          	jal	80003068 <begin_op>
      ilock(ip);
    800028e0:	854e                	mv	a0,s3
    800028e2:	d7bff0ef          	jal	8000265c <ilock>
      iunlock(ip);
    800028e6:	854e                	mv	a0,s3
    800028e8:	e23ff0ef          	jal	8000270a <iunlock>
      iput(ip);
    800028ec:	854e                	mv	a0,s3
    800028ee:	ef1ff0ef          	jal	800027de <iput>
      end_op();
    800028f2:	7e6000ef          	jal	800030d8 <end_op>
  for (int inum = 1; inum < sb.ninodes; inum++) {
    800028f6:	0485                	addi	s1,s1,1
    800028f8:	00ca2703          	lw	a4,12(s4)
    800028fc:	0004879b          	sext.w	a5,s1
    80002900:	02e7fd63          	bgeu	a5,a4,8000293a <ireclaim+0xb2>
    80002904:	0004899b          	sext.w	s3,s1
    struct buf *bp = bread(dev, IBLOCK(inum, sb));
    80002908:	0044d593          	srli	a1,s1,0x4
    8000290c:	018a2783          	lw	a5,24(s4)
    80002910:	9dbd                	addw	a1,a1,a5
    80002912:	8556                	mv	a0,s5
    80002914:	eb0ff0ef          	jal	80001fc4 <bread>
    80002918:	892a                	mv	s2,a0
    struct dinode *dip = (struct dinode *)bp->data + inum % IPB;
    8000291a:	05850793          	addi	a5,a0,88
    8000291e:	00f9f713          	andi	a4,s3,15
    80002922:	071a                	slli	a4,a4,0x6
    80002924:	97ba                	add	a5,a5,a4
    if (dip->type != 0 && dip->nlink == 0) {  // is an orphaned inode
    80002926:	00079703          	lh	a4,0(a5)
    8000292a:	c701                	beqz	a4,80002932 <ireclaim+0xaa>
    8000292c:	00679783          	lh	a5,6(a5)
    80002930:	dbc1                	beqz	a5,800028c0 <ireclaim+0x38>
    brelse(bp);
    80002932:	854a                	mv	a0,s2
    80002934:	f98ff0ef          	jal	800020cc <brelse>
    if (ip) {
    80002938:	bf7d                	j	800028f6 <ireclaim+0x6e>
}
    8000293a:	70e2                	ld	ra,56(sp)
    8000293c:	7442                	ld	s0,48(sp)
    8000293e:	74a2                	ld	s1,40(sp)
    80002940:	7902                	ld	s2,32(sp)
    80002942:	69e2                	ld	s3,24(sp)
    80002944:	6a42                	ld	s4,16(sp)
    80002946:	6aa2                	ld	s5,8(sp)
    80002948:	6b02                	ld	s6,0(sp)
    8000294a:	6121                	addi	sp,sp,64
    8000294c:	8082                	ret
    8000294e:	8082                	ret

0000000080002950 <fsinit>:
fsinit(int dev) {
    80002950:	1101                	addi	sp,sp,-32
    80002952:	ec06                	sd	ra,24(sp)
    80002954:	e822                	sd	s0,16(sp)
    80002956:	e426                	sd	s1,8(sp)
    80002958:	e04a                	sd	s2,0(sp)
    8000295a:	1000                	addi	s0,sp,32
    8000295c:	892a                	mv	s2,a0
  bp = bread(dev, 1);
    8000295e:	4585                	li	a1,1
    80002960:	e64ff0ef          	jal	80001fc4 <bread>
    80002964:	84aa                	mv	s1,a0
  memmove(sb, bp->data, sizeof(*sb));
    80002966:	02000613          	li	a2,32
    8000296a:	05850593          	addi	a1,a0,88
    8000296e:	00016517          	auipc	a0,0x16
    80002972:	dda50513          	addi	a0,a0,-550 # 80018748 <sb>
    80002976:	849fd0ef          	jal	800001be <memmove>
  brelse(bp);
    8000297a:	8526                	mv	a0,s1
    8000297c:	f50ff0ef          	jal	800020cc <brelse>
  if(sb.magic != FSMAGIC)
    80002980:	00016717          	auipc	a4,0x16
    80002984:	dc872703          	lw	a4,-568(a4) # 80018748 <sb>
    80002988:	102037b7          	lui	a5,0x10203
    8000298c:	04078793          	addi	a5,a5,64 # 10203040 <_entry-0x6fdfcfc0>
    80002990:	02f71263          	bne	a4,a5,800029b4 <fsinit+0x64>
  initlog(dev, &sb);
    80002994:	00016597          	auipc	a1,0x16
    80002998:	db458593          	addi	a1,a1,-588 # 80018748 <sb>
    8000299c:	854a                	mv	a0,s2
    8000299e:	648000ef          	jal	80002fe6 <initlog>
  ireclaim(dev);
    800029a2:	854a                	mv	a0,s2
    800029a4:	ee5ff0ef          	jal	80002888 <ireclaim>
}
    800029a8:	60e2                	ld	ra,24(sp)
    800029aa:	6442                	ld	s0,16(sp)
    800029ac:	64a2                	ld	s1,8(sp)
    800029ae:	6902                	ld	s2,0(sp)
    800029b0:	6105                	addi	sp,sp,32
    800029b2:	8082                	ret
    panic("invalid file system");
    800029b4:	00005517          	auipc	a0,0x5
    800029b8:	a7450513          	addi	a0,a0,-1420 # 80007428 <etext+0x428>
    800029bc:	47b020ef          	jal	80005636 <panic>

00000000800029c0 <stati>:

// Copy stat information from inode.
// Caller must hold ip->lock.
void
stati(struct inode *ip, struct stat *st)
{
    800029c0:	1141                	addi	sp,sp,-16
    800029c2:	e406                	sd	ra,8(sp)
    800029c4:	e022                	sd	s0,0(sp)
    800029c6:	0800                	addi	s0,sp,16
  st->dev = ip->dev;
    800029c8:	411c                	lw	a5,0(a0)
    800029ca:	c19c                	sw	a5,0(a1)
  st->ino = ip->inum;
    800029cc:	415c                	lw	a5,4(a0)
    800029ce:	c1dc                	sw	a5,4(a1)
  st->type = ip->type;
    800029d0:	04451783          	lh	a5,68(a0)
    800029d4:	00f59423          	sh	a5,8(a1)
  st->nlink = ip->nlink;
    800029d8:	04a51783          	lh	a5,74(a0)
    800029dc:	00f59523          	sh	a5,10(a1)
  st->size = ip->size;
    800029e0:	04c56783          	lwu	a5,76(a0)
    800029e4:	e99c                	sd	a5,16(a1)
}
    800029e6:	60a2                	ld	ra,8(sp)
    800029e8:	6402                	ld	s0,0(sp)
    800029ea:	0141                	addi	sp,sp,16
    800029ec:	8082                	ret

00000000800029ee <readi>:
readi(struct inode *ip, int user_dst, uint64 dst, uint off, uint n)
{
  uint tot, m;
  struct buf *bp;

  if(off > ip->size || off + n < off)
    800029ee:	457c                	lw	a5,76(a0)
    800029f0:	0ed7e663          	bltu	a5,a3,80002adc <readi+0xee>
{
    800029f4:	7159                	addi	sp,sp,-112
    800029f6:	f486                	sd	ra,104(sp)
    800029f8:	f0a2                	sd	s0,96(sp)
    800029fa:	eca6                	sd	s1,88(sp)
    800029fc:	e0d2                	sd	s4,64(sp)
    800029fe:	fc56                	sd	s5,56(sp)
    80002a00:	f85a                	sd	s6,48(sp)
    80002a02:	f45e                	sd	s7,40(sp)
    80002a04:	1880                	addi	s0,sp,112
    80002a06:	8b2a                	mv	s6,a0
    80002a08:	8bae                	mv	s7,a1
    80002a0a:	8a32                	mv	s4,a2
    80002a0c:	84b6                	mv	s1,a3
